
bin/Debug/project3.elf:     file format elf32-avr

Sections:
Idx Name          Size      VMA       LMA       File off  Algn
  0 .data         000002c2  00800100  00002a3e  00002ad2  2**0
                  CONTENTS, ALLOC, LOAD, DATA
  1 .text         00002a16  00000000  00000000  00000094  2**1
                  CONTENTS, ALLOC, LOAD, READONLY, CODE
  2 .siminfo      00000028  00002a16  00002a16  00002aaa  2**0
                  CONTENTS, ALLOC, LOAD, READONLY, DATA
  3 .bss          000001f6  008003c2  008003c2  00002d94  2**0
                  ALLOC
  4 .stab         0000168c  00000000  00000000  00002d94  2**2
                  CONTENTS, READONLY, DEBUGGING
  5 .stabstr      00000cc7  00000000  00000000  00004420  2**0
                  CONTENTS, READONLY, DEBUGGING
  6 .comment      00000011  00000000  00000000  000050e7  2**0
                  CONTENTS, READONLY
  7 .note.gnu.avr.deviceinfo 00000040  00000000  00000000  000050f8  2**2
                  CONTENTS, READONLY
  8 .debug_info   000005f4  00000000  00000000  00005138  2**0
                  CONTENTS, READONLY, DEBUGGING
  9 .debug_abbrev 000005a2  00000000  00000000  0000572c  2**0
                  CONTENTS, READONLY, DEBUGGING
 10 .debug_line   0000001a  00000000  00000000  00005cce  2**0
                  CONTENTS, READONLY, DEBUGGING
 11 .debug_str    00000208  00000000  00000000  00005ce8  2**0
                  CONTENTS, READONLY, DEBUGGING

Disassembly of section .text:

00000000 <__vectors>:
       0:	0c 94 3d 00 	jmp	0x7a	; 0x7a <__ctors_end>
       4:	0c 94 5a 00 	jmp	0xb4	; 0xb4 <__bad_interrupt>
       8:	0c 94 5a 00 	jmp	0xb4	; 0xb4 <__bad_interrupt>
       c:	0c 94 5a 00 	jmp	0xb4	; 0xb4 <__bad_interrupt>
      10:	0c 94 5a 00 	jmp	0xb4	; 0xb4 <__bad_interrupt>
      14:	0c 94 5a 00 	jmp	0xb4	; 0xb4 <__bad_interrupt>
      18:	0c 94 65 03 	jmp	0x6ca	; 0x6ca <__vector_6>
      1c:	0c 94 5a 00 	jmp	0xb4	; 0xb4 <__bad_interrupt>
      20:	0c 94 5a 00 	jmp	0xb4	; 0xb4 <__bad_interrupt>
      24:	0c 94 5a 00 	jmp	0xb4	; 0xb4 <__bad_interrupt>
      28:	0c 94 5a 00 	jmp	0xb4	; 0xb4 <__bad_interrupt>
      2c:	0c 94 e3 0b 	jmp	0x17c6	; 0x17c6 <__vector_11>
      30:	0c 94 5a 00 	jmp	0xb4	; 0xb4 <__bad_interrupt>
      34:	0c 94 5a 00 	jmp	0xb4	; 0xb4 <__bad_interrupt>
      38:	0c 94 1d 04 	jmp	0x83a	; 0x83a <__vector_14>
      3c:	0c 94 5a 00 	jmp	0xb4	; 0xb4 <__bad_interrupt>
      40:	0c 94 5a 00 	jmp	0xb4	; 0xb4 <__bad_interrupt>
      44:	0c 94 5a 00 	jmp	0xb4	; 0xb4 <__bad_interrupt>
      48:	0c 94 65 12 	jmp	0x24ca	; 0x24ca <__vector_18>
      4c:	0c 94 8d 13 	jmp	0x271a	; 0x271a <__vector_19>
      50:	0c 94 5a 00 	jmp	0xb4	; 0xb4 <__bad_interrupt>
      54:	0c 94 5a 00 	jmp	0xb4	; 0xb4 <__bad_interrupt>
      58:	0c 94 ef 04 	jmp	0x9de	; 0x9de <__vector_22>
      5c:	0c 94 5a 00 	jmp	0xb4	; 0xb4 <__bad_interrupt>
      60:	0c 94 5a 00 	jmp	0xb4	; 0xb4 <__bad_interrupt>
      64:	0c 94 5a 00 	jmp	0xb4	; 0xb4 <__bad_interrupt>
      68:	18 01       	movw	r2, r16
      6a:	4b 01       	movw	r8, r22
      6c:	7b 01       	movw	r14, r22
      6e:	ab 01       	movw	r20, r22
      70:	db 01       	movw	r26, r22
      72:	04 02       	muls	r16, r20
      74:	1b 02       	muls	r17, r27
      76:	4b 02       	muls	r20, r27
      78:	74 02       	muls	r23, r20

0000007a <__ctors_end>:
      7a:	11 24       	eor	r1, r1
      7c:	1f be       	out	0x3f, r1	; 63
      7e:	cf ef       	ldi	r28, 0xFF	; 255
      80:	d8 e0       	ldi	r29, 0x08	; 8
      82:	de bf       	out	0x3e, r29	; 62
      84:	cd bf       	out	0x3d, r28	; 61

00000086 <__do_copy_data>:
      86:	13 e0       	ldi	r17, 0x03	; 3
      88:	a0 e0       	ldi	r26, 0x00	; 0
      8a:	b1 e0       	ldi	r27, 0x01	; 1
      8c:	ee e3       	ldi	r30, 0x3E	; 62
      8e:	fa e2       	ldi	r31, 0x2A	; 42
      90:	02 c0       	rjmp	.+4      	; 0x96 <__do_copy_data+0x10>
      92:	05 90       	lpm	r0, Z+
      94:	0d 92       	st	X+, r0
      96:	a2 3c       	cpi	r26, 0xC2	; 194
      98:	b1 07       	cpc	r27, r17
      9a:	d9 f7       	brne	.-10     	; 0x92 <__do_copy_data+0xc>

0000009c <__do_clear_bss>:
      9c:	25 e0       	ldi	r18, 0x05	; 5
      9e:	a2 ec       	ldi	r26, 0xC2	; 194
      a0:	b3 e0       	ldi	r27, 0x03	; 3
      a2:	01 c0       	rjmp	.+2      	; 0xa6 <.do_clear_bss_start>

000000a4 <.do_clear_bss_loop>:
      a4:	1d 92       	st	X+, r1

000000a6 <.do_clear_bss_start>:
      a6:	a8 3b       	cpi	r26, 0xB8	; 184
      a8:	b2 07       	cpc	r27, r18
      aa:	e1 f7       	brne	.-8      	; 0xa4 <.do_clear_bss_loop>
      ac:	0e 94 5c 00 	call	0xb8	; 0xb8 <main>
      b0:	0c 94 09 15 	jmp	0x2a12	; 0x2a12 <_exit>

000000b4 <__bad_interrupt>:
      b4:	0c 94 00 00 	jmp	0	; 0x0 <__vectors>

000000b8 <main>:
* of tasks in order to provide a temperature sensor endpoint to an
* industrial IOT system. Ethernet sockets are not yet supported -
* all transactions are carried out over the uart debug port.
*/
int main(void)
{
      b8:	0f 93       	push	r16
      ba:	1f 93       	push	r17
      bc:	cf 93       	push	r28
      be:	df 93       	push	r29
      c0:	1f 92       	push	r1
      c2:	cd b7       	in	r28, 0x3d	; 61
      c4:	de b7       	in	r29, 0x3e	; 62
    /* initialize the hardware and device state */
    config_init();
      c6:	0e 94 d6 03 	call	0x7ac	; 0x7ac <config_init>
    vpd_init();
      ca:	0e 94 39 12 	call	0x2472	; 0x2472 <vpd_init>
    rtc_init();
      ce:	0e 94 1e 08 	call	0x103c	; 0x103c <rtc_init>
    log_init();
      d2:	0e 94 26 06 	call	0xc4c	; 0xc4c <log_init>
    alarm_init();
      d6:	0e 94 92 03 	call	0x724	; 0x724 <alarm_init>
    uart_init();
      da:	0e 94 30 0c 	call	0x1860	; 0x1860 <uart_init>
    led_init();
      de:	0e 94 82 05 	call	0xb04	; 0xb04 <led_init>
    temp_init();
      e2:	0e 94 ac 0b 	call	0x1758	; 0x1758 <temp_init>
    wdt_init();
      e6:	0e 94 55 03 	call	0x6aa	; 0x6aa <wdt_init>
    tempfsm_init();
      ea:	0e 94 a4 02 	call	0x548	; 0x548 <tempfsm_init>

    unsigned char connected = 0;  /* 1 if socket is connected, otherwise, 0 */
      ee:	19 82       	std	Y+1, r1	; 0x01

    /* print the banner to the debug port */
    uart_writestr("SER486 Project 3 - Integration\r\n");
      f0:	80 e3       	ldi	r24, 0x30	; 48
      f2:	91 e0       	ldi	r25, 0x01	; 1
      f4:	0e 94 36 0c 	call	0x186c	; 0x186c <uart_writestr>
    uart_writestr( STRINGIZE_VALUE(YOURNAME) );
      f8:	81 e5       	ldi	r24, 0x51	; 81
      fa:	91 e0       	ldi	r25, 0x01	; 1
      fc:	0e 94 36 0c 	call	0x186c	; 0x186c <uart_writestr>
    uart_writestr("\r\n");
     100:	84 e6       	ldi	r24, 0x64	; 100
     102:	91 e0       	ldi	r25, 0x01	; 1
     104:	0e 94 36 0c 	call	0x186c	; 0x186c <uart_writestr>

    /* log the startup event */
    log_add_record(EVENT_STARTUP);
     108:	80 e0       	ldi	r24, 0x00	; 0
     10a:	0e 94 53 07 	call	0xea6	; 0xea6 <log_add_record>

    /* start the first temperature reading and wait 5 seconds before reading again
    * this long delay ensures that the temperature spike during startup does not
    * trigger any false alarms.
    */
    temp_start();
     10e:	0e 94 be 0b 	call	0x177c	; 0x177c <temp_start>
    delay_set(1,5000);
     112:	68 e8       	ldi	r22, 0x88	; 136
     114:	73 e1       	ldi	r23, 0x13	; 19
     116:	81 e0       	ldi	r24, 0x01	; 1
     118:	90 e0       	ldi	r25, 0x00	; 0
     11a:	0e 94 a9 04 	call	0x952	; 0x952 <delay_set>

    /* control loop */
    while(1) {
       /* reset  the watchdog timer every loop */
       wdt_reset();
     11e:	0e 94 5e 03 	call	0x6bc	; 0x6bc <wdt_reset>

       /* update the led state based on the blink code */
       led_update();
     122:	0e 94 a1 05 	call	0xb42	; 0xb42 <led_update>
       /* if the temperature sensor delay is done, update the current temperature
       * from the temperature sensor, update the temperature sensor finite state
       * machine (which provides hysteresis) and send any temperature sensor
       * alarms (from FSM update).
       */
       if (delay_isdone(1)) {
     126:	81 e0       	ldi	r24, 0x01	; 1
     128:	90 e0       	ldi	r25, 0x00	; 0
     12a:	0e 94 90 04 	call	0x920	; 0x920 <delay_isdone>
     12e:	89 2b       	or	r24, r25
     130:	31 f1       	breq	.+76     	; 0x17e <main+0xc6>
          /* read the temperature sensor */
          current_temperature = temp_get();
     132:	0e 94 c4 0b 	call	0x1788	; 0x1788 <temp_get>
     136:	90 93 01 01 	sts	0x0101, r25	; 0x800101 <__data_start+0x1>
     13a:	80 93 00 01 	sts	0x0100, r24	; 0x800100 <__data_start>

          tempfsm_update(current_temperature,config.hi_alarm,config.hi_warn,config.lo_alarm,config.lo_warn);
     13e:	e0 91 b0 04 	lds	r30, 0x04B0	; 0x8004b0 <config+0xa>
     142:	f0 91 b1 04 	lds	r31, 0x04B1	; 0x8004b1 <config+0xb>
     146:	20 91 ae 04 	lds	r18, 0x04AE	; 0x8004ae <config+0x8>
     14a:	30 91 af 04 	lds	r19, 0x04AF	; 0x8004af <config+0x9>
     14e:	40 91 ac 04 	lds	r20, 0x04AC	; 0x8004ac <config+0x6>
     152:	50 91 ad 04 	lds	r21, 0x04AD	; 0x8004ad <config+0x7>
     156:	60 91 aa 04 	lds	r22, 0x04AA	; 0x8004aa <config+0x4>
     15a:	70 91 ab 04 	lds	r23, 0x04AB	; 0x8004ab <config+0x5>
     15e:	80 91 00 01 	lds	r24, 0x0100	; 0x800100 <__data_start>
     162:	90 91 01 01 	lds	r25, 0x0101	; 0x800101 <__data_start+0x1>
     166:	8f 01       	movw	r16, r30
     168:	0e 94 ec 00 	call	0x1d8	; 0x1d8 <tempfsm_update>

          /* restart the temperature sensor delay to trigger in 1 second */
          temp_start();
     16c:	0e 94 be 0b 	call	0x177c	; 0x177c <temp_start>
          delay_set(1,1000);
     170:	68 ee       	ldi	r22, 0xE8	; 232
     172:	73 e0       	ldi	r23, 0x03	; 3
     174:	81 e0       	ldi	r24, 0x01	; 1
     176:	90 e0       	ldi	r25, 0x00	; 0
     178:	0e 94 a9 04 	call	0x952	; 0x952 <delay_set>
     17c:	d0 cf       	rjmp	.-96     	; 0x11e <main+0x66>
       } else if (connected == 0) {
     17e:	89 81       	ldd	r24, Y+1	; 0x01
     180:	88 23       	and	r24, r24
     182:	59 f4       	brne	.+22     	; 0x19a <main+0xe2>
          /* if the connection state is 0 (unconnected), wait for the socket to connect */
          if (uartsocket_is_connected()) {
     184:	0e 94 a9 0d 	call	0x1b52	; 0x1b52 <uartsocket_is_connected>
     188:	88 23       	and	r24, r24
     18a:	49 f2       	breq	.-110    	; 0x11e <main+0x66>
             /* socket is now connected - print a message to the uart debug port and update our connection status */
             uart_writestr("Connection Established\r\n");
     18c:	87 e6       	ldi	r24, 0x67	; 103
     18e:	91 e0       	ldi	r25, 0x01	; 1
     190:	0e 94 36 0c 	call	0x186c	; 0x186c <uart_writestr>
             connected = 1;
     194:	81 e0       	ldi	r24, 0x01	; 1
     196:	89 83       	std	Y+1, r24	; 0x01
     198:	c2 cf       	rjmp	.-124    	; 0x11e <main+0x66>
          }
       } else if (uartsocket_is_packet_available()) {
     19a:	0e 94 ab 0d 	call	0x1b56	; 0x1b56 <uartsocket_is_packet_available>
     19e:	88 23       	and	r24, r24
     1a0:	69 f0       	breq	.+26     	; 0x1bc <main+0x104>
           /* here if we are connected and a packet is available for processing.
           * Process the packet, update the device state and send the appropriate response to the client
           */
           parse_and_send_response();
     1a2:	0e 94 ef 0d 	call	0x1bde	; 0x1bde <parse_and_send_response>
           if (!uartsocket_is_connected()) {
     1a6:	0e 94 a9 0d 	call	0x1b52	; 0x1b52 <uartsocket_is_connected>
     1aa:	88 23       	and	r24, r24
     1ac:	09 f0       	breq	.+2      	; 0x1b0 <main+0xf8>
     1ae:	b7 cf       	rjmp	.-146    	; 0x11e <main+0x66>
              /* if connection is lost, print a debug message and update the connection state */
              uartsocket_writestr("Connection Lost\r\n");
     1b0:	80 e8       	ldi	r24, 0x80	; 128
     1b2:	91 e0       	ldi	r25, 0x01	; 1
     1b4:	0e 94 a1 0d 	call	0x1b42	; 0x1b42 <uartsocket_writestr>
              connected = 0;
     1b8:	19 82       	std	Y+1, r1	; 0x01
     1ba:	b1 cf       	rjmp	.-158    	; 0x11e <main+0x66>
           }
       } else {
          /* update any pending write backs */
          if (!eeprom_isbusy()) log_update();
     1bc:	0e 94 7e 05 	call	0xafc	; 0xafc <eeprom_isbusy>
     1c0:	89 2b       	or	r24, r25
     1c2:	11 f4       	brne	.+4      	; 0x1c8 <main+0x110>
     1c4:	0e 94 eb 06 	call	0xdd6	; 0xdd6 <log_update>
          if (!eeprom_isbusy()) config_update();
     1c8:	0e 94 7e 05 	call	0xafc	; 0xafc <eeprom_isbusy>
     1cc:	89 2b       	or	r24, r25
     1ce:	09 f0       	breq	.+2      	; 0x1d2 <main+0x11a>
     1d0:	a6 cf       	rjmp	.-180    	; 0x11e <main+0x66>
     1d2:	0e 94 f1 03 	call	0x7e2	; 0x7e2 <config_update>
       }
    }
     1d6:	a3 cf       	rjmp	.-186    	; 0x11e <main+0x66>

000001d8 <tempfsm_update>:
*   int current, int hicrit, int hiwarn, int locrit, int lowarn
*
* returns:
*   nothing
*/
void tempfsm_update(int current, int hicrit, int hiwarn, int locrit, int lowarn){
     1d8:	0f 93       	push	r16
     1da:	1f 93       	push	r17
     1dc:	cf 93       	push	r28
     1de:	df 93       	push	r29
     1e0:	cd b7       	in	r28, 0x3d	; 61
     1e2:	de b7       	in	r29, 0x3e	; 62
     1e4:	2a 97       	sbiw	r28, 0x0a	; 10
     1e6:	0f b6       	in	r0, 0x3f	; 63
     1e8:	f8 94       	cli
     1ea:	de bf       	out	0x3e, r29	; 62
     1ec:	0f be       	out	0x3f, r0	; 63
     1ee:	cd bf       	out	0x3d, r28	; 61
     1f0:	9a 83       	std	Y+2, r25	; 0x02
     1f2:	89 83       	std	Y+1, r24	; 0x01
     1f4:	7c 83       	std	Y+4, r23	; 0x04
     1f6:	6b 83       	std	Y+3, r22	; 0x03
     1f8:	5e 83       	std	Y+6, r21	; 0x06
     1fa:	4d 83       	std	Y+5, r20	; 0x05
     1fc:	38 87       	std	Y+8, r19	; 0x08
     1fe:	2f 83       	std	Y+7, r18	; 0x07
     200:	1a 87       	std	Y+10, r17	; 0x0a
     202:	09 87       	std	Y+9, r16	; 0x09
    switch(fsm_state){
     204:	80 91 c2 03 	lds	r24, 0x03C2	; 0x8003c2 <__data_end>
     208:	90 91 c3 03 	lds	r25, 0x03C3	; 0x8003c3 <__data_end+0x1>
     20c:	cc 01       	movw	r24, r24
     20e:	a0 e0       	ldi	r26, 0x00	; 0
     210:	b0 e0       	ldi	r27, 0x00	; 0
     212:	40 e0       	ldi	r20, 0x00	; 0
     214:	50 e0       	ldi	r21, 0x00	; 0
     216:	28 e0       	ldi	r18, 0x08	; 8
     218:	30 e0       	ldi	r19, 0x00	; 0
     21a:	84 1b       	sub	r24, r20
     21c:	95 0b       	sbc	r25, r21
     21e:	28 17       	cp	r18, r24
     220:	39 07       	cpc	r19, r25
     222:	08 f4       	brcc	.+2      	; 0x226 <tempfsm_update+0x4e>
     224:	79 c1       	rjmp	.+754    	; 0x518 <__LOCK_REGION_LENGTH__+0x118>
     226:	8c 5c       	subi	r24, 0xCC	; 204
     228:	9f 4f       	sbci	r25, 0xFF	; 255
     22a:	fc 01       	movw	r30, r24
     22c:	0c 94 e9 14 	jmp	0x29d2	; 0x29d2 <__tablejump2__>
        case NORM_1: {
           if(current >= hiwarn){
     230:	29 81       	ldd	r18, Y+1	; 0x01
     232:	3a 81       	ldd	r19, Y+2	; 0x02
     234:	8d 81       	ldd	r24, Y+5	; 0x05
     236:	9e 81       	ldd	r25, Y+6	; 0x06
     238:	28 17       	cp	r18, r24
     23a:	39 07       	cpc	r19, r25
     23c:	94 f0       	brlt	.+36     	; 0x262 <tempfsm_update+0x8a>
               fsm_state = WARNING_HI_1;
     23e:	83 e0       	ldi	r24, 0x03	; 3
     240:	90 e0       	ldi	r25, 0x00	; 0
     242:	90 93 c3 03 	sts	0x03C3, r25	; 0x8003c3 <__data_end+0x1>
     246:	80 93 c2 03 	sts	0x03C2, r24	; 0x8003c2 <__data_end>
               alarm_send(EVENT_HI_WARN);
     24a:	86 e0       	ldi	r24, 0x06	; 6
     24c:	90 e0       	ldi	r25, 0x00	; 0
     24e:	0e 94 93 03 	call	0x726	; 0x726 <alarm_send>
               log_add_record(EVENT_HI_WARN);
     252:	86 e0       	ldi	r24, 0x06	; 6
     254:	0e 94 53 07 	call	0xea6	; 0xea6 <log_add_record>
               led_set_blink(WARNING_LED);
     258:	82 e9       	ldi	r24, 0x92	; 146
     25a:	91 e0       	ldi	r25, 0x01	; 1
     25c:	0e 94 8f 05 	call	0xb1e	; 0xb1e <led_set_blink>
               log_add_record(EVENT_LO_WARN);
               led_set_blink(WARNING_LED);
           }

        }
        break;
     260:	5a c1       	rjmp	.+692    	; 0x516 <__LOCK_REGION_LENGTH__+0x116>
               alarm_send(EVENT_HI_WARN);
               log_add_record(EVENT_HI_WARN);
               led_set_blink(WARNING_LED);

           }
           else if(current <= lowarn){
     262:	29 81       	ldd	r18, Y+1	; 0x01
     264:	3a 81       	ldd	r19, Y+2	; 0x02
     266:	89 85       	ldd	r24, Y+9	; 0x09
     268:	9a 85       	ldd	r25, Y+10	; 0x0a
     26a:	82 17       	cp	r24, r18
     26c:	93 07       	cpc	r25, r19
     26e:	0c f4       	brge	.+2      	; 0x272 <tempfsm_update+0x9a>
     270:	52 c1       	rjmp	.+676    	; 0x516 <__LOCK_REGION_LENGTH__+0x116>
               fsm_state = WARNING_LO_1;
     272:	86 e0       	ldi	r24, 0x06	; 6
     274:	90 e0       	ldi	r25, 0x00	; 0
     276:	90 93 c3 03 	sts	0x03C3, r25	; 0x8003c3 <__data_end+0x1>
     27a:	80 93 c2 03 	sts	0x03C2, r24	; 0x8003c2 <__data_end>
               alarm_send(EVENT_LO_WARN);
     27e:	88 e0       	ldi	r24, 0x08	; 8
     280:	90 e0       	ldi	r25, 0x00	; 0
     282:	0e 94 93 03 	call	0x726	; 0x726 <alarm_send>
               log_add_record(EVENT_LO_WARN);
     286:	88 e0       	ldi	r24, 0x08	; 8
     288:	0e 94 53 07 	call	0xea6	; 0xea6 <log_add_record>
               led_set_blink(WARNING_LED);
     28c:	82 e9       	ldi	r24, 0x92	; 146
     28e:	91 e0       	ldi	r25, 0x01	; 1
     290:	0e 94 8f 05 	call	0xb1e	; 0xb1e <led_set_blink>
           }

        }
        break;
     294:	40 c1       	rjmp	.+640    	; 0x516 <__LOCK_REGION_LENGTH__+0x116>

        case NORM_2: {
           if(current >= hiwarn){
     296:	29 81       	ldd	r18, Y+1	; 0x01
     298:	3a 81       	ldd	r19, Y+2	; 0x02
     29a:	8d 81       	ldd	r24, Y+5	; 0x05
     29c:	9e 81       	ldd	r25, Y+6	; 0x06
     29e:	28 17       	cp	r18, r24
     2a0:	39 07       	cpc	r19, r25
     2a2:	94 f0       	brlt	.+36     	; 0x2c8 <tempfsm_update+0xf0>
               fsm_state = WARNING_HI_1;
     2a4:	83 e0       	ldi	r24, 0x03	; 3
     2a6:	90 e0       	ldi	r25, 0x00	; 0
     2a8:	90 93 c3 03 	sts	0x03C3, r25	; 0x8003c3 <__data_end+0x1>
     2ac:	80 93 c2 03 	sts	0x03C2, r24	; 0x8003c2 <__data_end>
               alarm_send(EVENT_HI_WARN);
     2b0:	86 e0       	ldi	r24, 0x06	; 6
     2b2:	90 e0       	ldi	r25, 0x00	; 0
     2b4:	0e 94 93 03 	call	0x726	; 0x726 <alarm_send>
               log_add_record(EVENT_HI_WARN);
     2b8:	86 e0       	ldi	r24, 0x06	; 6
     2ba:	0e 94 53 07 	call	0xea6	; 0xea6 <log_add_record>
               led_set_blink(WARNING_LED);
     2be:	82 e9       	ldi	r24, 0x92	; 146
     2c0:	91 e0       	ldi	r25, 0x01	; 1
     2c2:	0e 94 8f 05 	call	0xb1e	; 0xb1e <led_set_blink>
           else {
               led_set_blink(NORMAL_LED);
           }

        }
        break;
     2c6:	28 c1       	rjmp	.+592    	; 0x518 <__LOCK_REGION_LENGTH__+0x118>
               alarm_send(EVENT_HI_WARN);
               log_add_record(EVENT_HI_WARN);
               led_set_blink(WARNING_LED);

           }
           else if(current <= lowarn){
     2c8:	29 81       	ldd	r18, Y+1	; 0x01
     2ca:	3a 81       	ldd	r19, Y+2	; 0x02
     2cc:	89 85       	ldd	r24, Y+9	; 0x09
     2ce:	9a 85       	ldd	r25, Y+10	; 0x0a
     2d0:	82 17       	cp	r24, r18
     2d2:	93 07       	cpc	r25, r19
     2d4:	5c f0       	brlt	.+22     	; 0x2ec <tempfsm_update+0x114>
               fsm_state = WARNING_LO_1;
     2d6:	86 e0       	ldi	r24, 0x06	; 6
     2d8:	90 e0       	ldi	r25, 0x00	; 0
     2da:	90 93 c3 03 	sts	0x03C3, r25	; 0x8003c3 <__data_end+0x1>
     2de:	80 93 c2 03 	sts	0x03C2, r24	; 0x8003c2 <__data_end>
               led_set_blink(WARNING_LED);
     2e2:	82 e9       	ldi	r24, 0x92	; 146
     2e4:	91 e0       	ldi	r25, 0x01	; 1
     2e6:	0e 94 8f 05 	call	0xb1e	; 0xb1e <led_set_blink>
           else {
               led_set_blink(NORMAL_LED);
           }

        }
        break;
     2ea:	16 c1       	rjmp	.+556    	; 0x518 <__LOCK_REGION_LENGTH__+0x118>
           else if(current <= lowarn){
               fsm_state = WARNING_LO_1;
               led_set_blink(WARNING_LED);
           }
           else {
               led_set_blink(NORMAL_LED);
     2ec:	84 e9       	ldi	r24, 0x94	; 148
     2ee:	91 e0       	ldi	r25, 0x01	; 1
     2f0:	0e 94 8f 05 	call	0xb1e	; 0xb1e <led_set_blink>
           }

        }
        break;
     2f4:	11 c1       	rjmp	.+546    	; 0x518 <__LOCK_REGION_LENGTH__+0x118>

        case NORM_3: {
           if(current <= lowarn){
     2f6:	29 81       	ldd	r18, Y+1	; 0x01
     2f8:	3a 81       	ldd	r19, Y+2	; 0x02
     2fa:	89 85       	ldd	r24, Y+9	; 0x09
     2fc:	9a 85       	ldd	r25, Y+10	; 0x0a
     2fe:	82 17       	cp	r24, r18
     300:	93 07       	cpc	r25, r19
     302:	94 f0       	brlt	.+36     	; 0x328 <tempfsm_update+0x150>
               fsm_state = WARNING_LO_1;
     304:	86 e0       	ldi	r24, 0x06	; 6
     306:	90 e0       	ldi	r25, 0x00	; 0
     308:	90 93 c3 03 	sts	0x03C3, r25	; 0x8003c3 <__data_end+0x1>
     30c:	80 93 c2 03 	sts	0x03C2, r24	; 0x8003c2 <__data_end>
               alarm_send(EVENT_LO_WARN);
     310:	88 e0       	ldi	r24, 0x08	; 8
     312:	90 e0       	ldi	r25, 0x00	; 0
     314:	0e 94 93 03 	call	0x726	; 0x726 <alarm_send>
               log_add_record(EVENT_LO_WARN);
     318:	88 e0       	ldi	r24, 0x08	; 8
     31a:	0e 94 53 07 	call	0xea6	; 0xea6 <log_add_record>
               led_set_blink(WARNING_LED);
     31e:	82 e9       	ldi	r24, 0x92	; 146
     320:	91 e0       	ldi	r25, 0x01	; 1
     322:	0e 94 8f 05 	call	0xb1e	; 0xb1e <led_set_blink>
           else {
               led_set_blink(NORMAL_LED);
           }

        }
        break;
     326:	f8 c0       	rjmp	.+496    	; 0x518 <__LOCK_REGION_LENGTH__+0x118>
               fsm_state = WARNING_LO_1;
               alarm_send(EVENT_LO_WARN);
               log_add_record(EVENT_LO_WARN);
               led_set_blink(WARNING_LED);
           }
           else if(current >= hiwarn){
     328:	29 81       	ldd	r18, Y+1	; 0x01
     32a:	3a 81       	ldd	r19, Y+2	; 0x02
     32c:	8d 81       	ldd	r24, Y+5	; 0x05
     32e:	9e 81       	ldd	r25, Y+6	; 0x06
     330:	28 17       	cp	r18, r24
     332:	39 07       	cpc	r19, r25
     334:	5c f0       	brlt	.+22     	; 0x34c <tempfsm_update+0x174>
               fsm_state = WARNING_HI_1;
     336:	83 e0       	ldi	r24, 0x03	; 3
     338:	90 e0       	ldi	r25, 0x00	; 0
     33a:	90 93 c3 03 	sts	0x03C3, r25	; 0x8003c3 <__data_end+0x1>
     33e:	80 93 c2 03 	sts	0x03C2, r24	; 0x8003c2 <__data_end>
               led_set_blink(WARNING_LED);
     342:	82 e9       	ldi	r24, 0x92	; 146
     344:	91 e0       	ldi	r25, 0x01	; 1
     346:	0e 94 8f 05 	call	0xb1e	; 0xb1e <led_set_blink>
           else {
               led_set_blink(NORMAL_LED);
           }

        }
        break;
     34a:	e6 c0       	rjmp	.+460    	; 0x518 <__LOCK_REGION_LENGTH__+0x118>
           else if(current >= hiwarn){
               fsm_state = WARNING_HI_1;
               led_set_blink(WARNING_LED);
           }
           else {
               led_set_blink(NORMAL_LED);
     34c:	84 e9       	ldi	r24, 0x94	; 148
     34e:	91 e0       	ldi	r25, 0x01	; 1
     350:	0e 94 8f 05 	call	0xb1e	; 0xb1e <led_set_blink>
           }

        }
        break;
     354:	e1 c0       	rjmp	.+450    	; 0x518 <__LOCK_REGION_LENGTH__+0x118>

        case WARNING_HI_1: {
           if(current >= hicrit) {
     356:	29 81       	ldd	r18, Y+1	; 0x01
     358:	3a 81       	ldd	r19, Y+2	; 0x02
     35a:	8b 81       	ldd	r24, Y+3	; 0x03
     35c:	9c 81       	ldd	r25, Y+4	; 0x04
     35e:	28 17       	cp	r18, r24
     360:	39 07       	cpc	r19, r25
     362:	94 f0       	brlt	.+36     	; 0x388 <tempfsm_update+0x1b0>
               fsm_state = CRITICAL_HI;
     364:	85 e0       	ldi	r24, 0x05	; 5
     366:	90 e0       	ldi	r25, 0x00	; 0
     368:	90 93 c3 03 	sts	0x03C3, r25	; 0x8003c3 <__data_end+0x1>
     36c:	80 93 c2 03 	sts	0x03C2, r24	; 0x8003c2 <__data_end>
               alarm_send(EVENT_HI_ALARM);
     370:	85 e0       	ldi	r24, 0x05	; 5
     372:	90 e0       	ldi	r25, 0x00	; 0
     374:	0e 94 93 03 	call	0x726	; 0x726 <alarm_send>
               log_add_record(EVENT_HI_ALARM);
     378:	85 e0       	ldi	r24, 0x05	; 5
     37a:	0e 94 53 07 	call	0xea6	; 0xea6 <log_add_record>
               led_set_blink(CRITICAL_LED);
     37e:	86 e9       	ldi	r24, 0x96	; 150
     380:	91 e0       	ldi	r25, 0x01	; 1
     382:	0e 94 8f 05 	call	0xb1e	; 0xb1e <led_set_blink>
           else {
               led_set_blink(NORMAL_LED);
           }

        }
        break;
     386:	c8 c0       	rjmp	.+400    	; 0x518 <__LOCK_REGION_LENGTH__+0x118>
               alarm_send(EVENT_HI_ALARM);
               log_add_record(EVENT_HI_ALARM);
               led_set_blink(CRITICAL_LED);

           }
           else if(current < hiwarn) {
     388:	29 81       	ldd	r18, Y+1	; 0x01
     38a:	3a 81       	ldd	r19, Y+2	; 0x02
     38c:	8d 81       	ldd	r24, Y+5	; 0x05
     38e:	9e 81       	ldd	r25, Y+6	; 0x06
     390:	28 17       	cp	r18, r24
     392:	39 07       	cpc	r19, r25
     394:	5c f4       	brge	.+22     	; 0x3ac <tempfsm_update+0x1d4>
               fsm_state = NORM_3;
     396:	82 e0       	ldi	r24, 0x02	; 2
     398:	90 e0       	ldi	r25, 0x00	; 0
     39a:	90 93 c3 03 	sts	0x03C3, r25	; 0x8003c3 <__data_end+0x1>
     39e:	80 93 c2 03 	sts	0x03C2, r24	; 0x8003c2 <__data_end>
               led_set_blink(NORMAL_LED);
     3a2:	84 e9       	ldi	r24, 0x94	; 148
     3a4:	91 e0       	ldi	r25, 0x01	; 1
     3a6:	0e 94 8f 05 	call	0xb1e	; 0xb1e <led_set_blink>
           else {
               led_set_blink(NORMAL_LED);
           }

        }
        break;
     3aa:	b6 c0       	rjmp	.+364    	; 0x518 <__LOCK_REGION_LENGTH__+0x118>
           else if(current < hiwarn) {
               fsm_state = NORM_3;
               led_set_blink(NORMAL_LED);
           }
           else {
               led_set_blink(NORMAL_LED);
     3ac:	84 e9       	ldi	r24, 0x94	; 148
     3ae:	91 e0       	ldi	r25, 0x01	; 1
     3b0:	0e 94 8f 05 	call	0xb1e	; 0xb1e <led_set_blink>
           }

        }
        break;
     3b4:	b1 c0       	rjmp	.+354    	; 0x518 <__LOCK_REGION_LENGTH__+0x118>

        case WARNING_HI_2: {
           if(current >= hicrit) {
     3b6:	29 81       	ldd	r18, Y+1	; 0x01
     3b8:	3a 81       	ldd	r19, Y+2	; 0x02
     3ba:	8b 81       	ldd	r24, Y+3	; 0x03
     3bc:	9c 81       	ldd	r25, Y+4	; 0x04
     3be:	28 17       	cp	r18, r24
     3c0:	39 07       	cpc	r19, r25
     3c2:	5c f0       	brlt	.+22     	; 0x3da <tempfsm_update+0x202>
               fsm_state = CRITICAL_HI;
     3c4:	85 e0       	ldi	r24, 0x05	; 5
     3c6:	90 e0       	ldi	r25, 0x00	; 0
     3c8:	90 93 c3 03 	sts	0x03C3, r25	; 0x8003c3 <__data_end+0x1>
     3cc:	80 93 c2 03 	sts	0x03C2, r24	; 0x8003c2 <__data_end>
               led_set_blink(CRITICAL_LED);
     3d0:	86 e9       	ldi	r24, 0x96	; 150
     3d2:	91 e0       	ldi	r25, 0x01	; 1
     3d4:	0e 94 8f 05 	call	0xb1e	; 0xb1e <led_set_blink>
           else {
               led_set_blink(NORMAL_LED);
           }

        }
        break;
     3d8:	9f c0       	rjmp	.+318    	; 0x518 <__LOCK_REGION_LENGTH__+0x118>
        case WARNING_HI_2: {
           if(current >= hicrit) {
               fsm_state = CRITICAL_HI;
               led_set_blink(CRITICAL_LED);
           }
           else if(current < hiwarn) {
     3da:	29 81       	ldd	r18, Y+1	; 0x01
     3dc:	3a 81       	ldd	r19, Y+2	; 0x02
     3de:	8d 81       	ldd	r24, Y+5	; 0x05
     3e0:	9e 81       	ldd	r25, Y+6	; 0x06
     3e2:	28 17       	cp	r18, r24
     3e4:	39 07       	cpc	r19, r25
     3e6:	5c f4       	brge	.+22     	; 0x3fe <tempfsm_update+0x226>
               fsm_state = NORM_3;
     3e8:	82 e0       	ldi	r24, 0x02	; 2
     3ea:	90 e0       	ldi	r25, 0x00	; 0
     3ec:	90 93 c3 03 	sts	0x03C3, r25	; 0x8003c3 <__data_end+0x1>
     3f0:	80 93 c2 03 	sts	0x03C2, r24	; 0x8003c2 <__data_end>
               led_set_blink(NORMAL_LED);
     3f4:	84 e9       	ldi	r24, 0x94	; 148
     3f6:	91 e0       	ldi	r25, 0x01	; 1
     3f8:	0e 94 8f 05 	call	0xb1e	; 0xb1e <led_set_blink>
           else {
               led_set_blink(NORMAL_LED);
           }

        }
        break;
     3fc:	8d c0       	rjmp	.+282    	; 0x518 <__LOCK_REGION_LENGTH__+0x118>
           else if(current < hiwarn) {
               fsm_state = NORM_3;
               led_set_blink(NORMAL_LED);
           }
           else {
               led_set_blink(NORMAL_LED);
     3fe:	84 e9       	ldi	r24, 0x94	; 148
     400:	91 e0       	ldi	r25, 0x01	; 1
     402:	0e 94 8f 05 	call	0xb1e	; 0xb1e <led_set_blink>
           }

        }
        break;
     406:	88 c0       	rjmp	.+272    	; 0x518 <__LOCK_REGION_LENGTH__+0x118>

        case CRITICAL_HI: {
            if(current < hicrit) {
     408:	29 81       	ldd	r18, Y+1	; 0x01
     40a:	3a 81       	ldd	r19, Y+2	; 0x02
     40c:	8b 81       	ldd	r24, Y+3	; 0x03
     40e:	9c 81       	ldd	r25, Y+4	; 0x04
     410:	28 17       	cp	r18, r24
     412:	39 07       	cpc	r19, r25
     414:	5c f4       	brge	.+22     	; 0x42c <__LOCK_REGION_LENGTH__+0x2c>
               fsm_state = WARNING_HI_2;
     416:	84 e0       	ldi	r24, 0x04	; 4
     418:	90 e0       	ldi	r25, 0x00	; 0
     41a:	90 93 c3 03 	sts	0x03C3, r25	; 0x8003c3 <__data_end+0x1>
     41e:	80 93 c2 03 	sts	0x03C2, r24	; 0x8003c2 <__data_end>
               led_set_blink(WARNING_LED);
     422:	82 e9       	ldi	r24, 0x92	; 146
     424:	91 e0       	ldi	r25, 0x01	; 1
     426:	0e 94 8f 05 	call	0xb1e	; 0xb1e <led_set_blink>
           else {
               led_set_blink(CRITICAL_LED);
           }

        }
        break;
     42a:	76 c0       	rjmp	.+236    	; 0x518 <__LOCK_REGION_LENGTH__+0x118>
            if(current < hicrit) {
               fsm_state = WARNING_HI_2;
               led_set_blink(WARNING_LED);
           }
           else {
               led_set_blink(CRITICAL_LED);
     42c:	86 e9       	ldi	r24, 0x96	; 150
     42e:	91 e0       	ldi	r25, 0x01	; 1
     430:	0e 94 8f 05 	call	0xb1e	; 0xb1e <led_set_blink>
           }

        }
        break;
     434:	71 c0       	rjmp	.+226    	; 0x518 <__LOCK_REGION_LENGTH__+0x118>

        case WARNING_LO_1: {
            if(current <= locrit) {
     436:	29 81       	ldd	r18, Y+1	; 0x01
     438:	3a 81       	ldd	r19, Y+2	; 0x02
     43a:	8f 81       	ldd	r24, Y+7	; 0x07
     43c:	98 85       	ldd	r25, Y+8	; 0x08
     43e:	82 17       	cp	r24, r18
     440:	93 07       	cpc	r25, r19
     442:	94 f0       	brlt	.+36     	; 0x468 <__LOCK_REGION_LENGTH__+0x68>
               fsm_state = CRITICAL_LO;
     444:	88 e0       	ldi	r24, 0x08	; 8
     446:	90 e0       	ldi	r25, 0x00	; 0
     448:	90 93 c3 03 	sts	0x03C3, r25	; 0x8003c3 <__data_end+0x1>
     44c:	80 93 c2 03 	sts	0x03C2, r24	; 0x8003c2 <__data_end>
               alarm_send(EVENT_LO_ALARM);
     450:	87 e0       	ldi	r24, 0x07	; 7
     452:	90 e0       	ldi	r25, 0x00	; 0
     454:	0e 94 93 03 	call	0x726	; 0x726 <alarm_send>
               log_add_record(EVENT_LO_ALARM);
     458:	87 e0       	ldi	r24, 0x07	; 7
     45a:	0e 94 53 07 	call	0xea6	; 0xea6 <log_add_record>
               led_set_blink(CRITICAL_LED);
     45e:	86 e9       	ldi	r24, 0x96	; 150
     460:	91 e0       	ldi	r25, 0x01	; 1
     462:	0e 94 8f 05 	call	0xb1e	; 0xb1e <led_set_blink>
           else {
               led_set_blink(WARNING_LED);
           }

        }
        break;
     466:	58 c0       	rjmp	.+176    	; 0x518 <__LOCK_REGION_LENGTH__+0x118>
               fsm_state = CRITICAL_LO;
               alarm_send(EVENT_LO_ALARM);
               log_add_record(EVENT_LO_ALARM);
               led_set_blink(CRITICAL_LED);
           }
           else if(current > lowarn) {
     468:	29 81       	ldd	r18, Y+1	; 0x01
     46a:	3a 81       	ldd	r19, Y+2	; 0x02
     46c:	89 85       	ldd	r24, Y+9	; 0x09
     46e:	9a 85       	ldd	r25, Y+10	; 0x0a
     470:	82 17       	cp	r24, r18
     472:	93 07       	cpc	r25, r19
     474:	5c f4       	brge	.+22     	; 0x48c <__LOCK_REGION_LENGTH__+0x8c>
               fsm_state = NORM_2;
     476:	81 e0       	ldi	r24, 0x01	; 1
     478:	90 e0       	ldi	r25, 0x00	; 0
     47a:	90 93 c3 03 	sts	0x03C3, r25	; 0x8003c3 <__data_end+0x1>
     47e:	80 93 c2 03 	sts	0x03C2, r24	; 0x8003c2 <__data_end>
               led_set_blink(NORMAL_LED);
     482:	84 e9       	ldi	r24, 0x94	; 148
     484:	91 e0       	ldi	r25, 0x01	; 1
     486:	0e 94 8f 05 	call	0xb1e	; 0xb1e <led_set_blink>
           else {
               led_set_blink(WARNING_LED);
           }

        }
        break;
     48a:	46 c0       	rjmp	.+140    	; 0x518 <__LOCK_REGION_LENGTH__+0x118>
           else if(current > lowarn) {
               fsm_state = NORM_2;
               led_set_blink(NORMAL_LED);
           }
           else {
               led_set_blink(WARNING_LED);
     48c:	82 e9       	ldi	r24, 0x92	; 146
     48e:	91 e0       	ldi	r25, 0x01	; 1
     490:	0e 94 8f 05 	call	0xb1e	; 0xb1e <led_set_blink>
           }

        }
        break;
     494:	41 c0       	rjmp	.+130    	; 0x518 <__LOCK_REGION_LENGTH__+0x118>

        case WARNING_LO_2: {
           if(current < locrit) {
     496:	29 81       	ldd	r18, Y+1	; 0x01
     498:	3a 81       	ldd	r19, Y+2	; 0x02
     49a:	8f 81       	ldd	r24, Y+7	; 0x07
     49c:	98 85       	ldd	r25, Y+8	; 0x08
     49e:	28 17       	cp	r18, r24
     4a0:	39 07       	cpc	r19, r25
     4a2:	5c f4       	brge	.+22     	; 0x4ba <__LOCK_REGION_LENGTH__+0xba>
               fsm_state = CRITICAL_LO;
     4a4:	88 e0       	ldi	r24, 0x08	; 8
     4a6:	90 e0       	ldi	r25, 0x00	; 0
     4a8:	90 93 c3 03 	sts	0x03C3, r25	; 0x8003c3 <__data_end+0x1>
     4ac:	80 93 c2 03 	sts	0x03C2, r24	; 0x8003c2 <__data_end>
               led_set_blink(CRITICAL_LED);
     4b0:	86 e9       	ldi	r24, 0x96	; 150
     4b2:	91 e0       	ldi	r25, 0x01	; 1
     4b4:	0e 94 8f 05 	call	0xb1e	; 0xb1e <led_set_blink>
           else {
               led_set_blink(WARNING_LED);
           }

        }
        break;
     4b8:	2f c0       	rjmp	.+94     	; 0x518 <__LOCK_REGION_LENGTH__+0x118>
        case WARNING_LO_2: {
           if(current < locrit) {
               fsm_state = CRITICAL_LO;
               led_set_blink(CRITICAL_LED);
           }
           else if(current > lowarn) {
     4ba:	29 81       	ldd	r18, Y+1	; 0x01
     4bc:	3a 81       	ldd	r19, Y+2	; 0x02
     4be:	89 85       	ldd	r24, Y+9	; 0x09
     4c0:	9a 85       	ldd	r25, Y+10	; 0x0a
     4c2:	82 17       	cp	r24, r18
     4c4:	93 07       	cpc	r25, r19
     4c6:	5c f4       	brge	.+22     	; 0x4de <__LOCK_REGION_LENGTH__+0xde>
               fsm_state = NORM_3;
     4c8:	82 e0       	ldi	r24, 0x02	; 2
     4ca:	90 e0       	ldi	r25, 0x00	; 0
     4cc:	90 93 c3 03 	sts	0x03C3, r25	; 0x8003c3 <__data_end+0x1>
     4d0:	80 93 c2 03 	sts	0x03C2, r24	; 0x8003c2 <__data_end>
               led_set_blink(NORMAL_LED);
     4d4:	84 e9       	ldi	r24, 0x94	; 148
     4d6:	91 e0       	ldi	r25, 0x01	; 1
     4d8:	0e 94 8f 05 	call	0xb1e	; 0xb1e <led_set_blink>
           else {
               led_set_blink(WARNING_LED);
           }

        }
        break;
     4dc:	1d c0       	rjmp	.+58     	; 0x518 <__LOCK_REGION_LENGTH__+0x118>
           else if(current > lowarn) {
               fsm_state = NORM_3;
               led_set_blink(NORMAL_LED);
           }
           else {
               led_set_blink(WARNING_LED);
     4de:	82 e9       	ldi	r24, 0x92	; 146
     4e0:	91 e0       	ldi	r25, 0x01	; 1
     4e2:	0e 94 8f 05 	call	0xb1e	; 0xb1e <led_set_blink>
           }

        }
        break;
     4e6:	18 c0       	rjmp	.+48     	; 0x518 <__LOCK_REGION_LENGTH__+0x118>

        case CRITICAL_LO: {
           if(current > locrit) {
     4e8:	29 81       	ldd	r18, Y+1	; 0x01
     4ea:	3a 81       	ldd	r19, Y+2	; 0x02
     4ec:	8f 81       	ldd	r24, Y+7	; 0x07
     4ee:	98 85       	ldd	r25, Y+8	; 0x08
     4f0:	82 17       	cp	r24, r18
     4f2:	93 07       	cpc	r25, r19
     4f4:	5c f4       	brge	.+22     	; 0x50c <__LOCK_REGION_LENGTH__+0x10c>
               fsm_state = WARNING_LO_2;
     4f6:	87 e0       	ldi	r24, 0x07	; 7
     4f8:	90 e0       	ldi	r25, 0x00	; 0
     4fa:	90 93 c3 03 	sts	0x03C3, r25	; 0x8003c3 <__data_end+0x1>
     4fe:	80 93 c2 03 	sts	0x03C2, r24	; 0x8003c2 <__data_end>
               led_set_blink(WARNING_LED);
     502:	82 e9       	ldi	r24, 0x92	; 146
     504:	91 e0       	ldi	r25, 0x01	; 1
     506:	0e 94 8f 05 	call	0xb1e	; 0xb1e <led_set_blink>
           }
           else {
               led_set_blink(CRITICAL_LED);
           }
        }
        break;
     50a:	06 c0       	rjmp	.+12     	; 0x518 <__LOCK_REGION_LENGTH__+0x118>
           if(current > locrit) {
               fsm_state = WARNING_LO_2;
               led_set_blink(WARNING_LED);
           }
           else {
               led_set_blink(CRITICAL_LED);
     50c:	86 e9       	ldi	r24, 0x96	; 150
     50e:	91 e0       	ldi	r25, 0x01	; 1
     510:	0e 94 8f 05 	call	0xb1e	; 0xb1e <led_set_blink>
           }
        }
        break;
     514:	01 c0       	rjmp	.+2      	; 0x518 <__LOCK_REGION_LENGTH__+0x118>
               log_add_record(EVENT_LO_WARN);
               led_set_blink(WARNING_LED);
           }

        }
        break;
     516:	00 00       	nop
               led_set_blink(CRITICAL_LED);
           }
        }
        break;
    }
}
     518:	00 00       	nop
     51a:	2a 96       	adiw	r28, 0x0a	; 10
     51c:	0f b6       	in	r0, 0x3f	; 63
     51e:	f8 94       	cli
     520:	de bf       	out	0x3e, r29	; 62
     522:	0f be       	out	0x3f, r0	; 63
     524:	cd bf       	out	0x3d, r28	; 61
     526:	df 91       	pop	r29
     528:	cf 91       	pop	r28
     52a:	1f 91       	pop	r17
     52c:	0f 91       	pop	r16
     52e:	08 95       	ret

00000530 <tempfsm_reset>:
*   none
*
* returns:
*   nothing
*/
void tempfsm_reset(){
     530:	cf 93       	push	r28
     532:	df 93       	push	r29
     534:	cd b7       	in	r28, 0x3d	; 61
     536:	de b7       	in	r29, 0x3e	; 62

    fsm_state = NORM_1;
     538:	10 92 c3 03 	sts	0x03C3, r1	; 0x8003c3 <__data_end+0x1>
     53c:	10 92 c2 03 	sts	0x03C2, r1	; 0x8003c2 <__data_end>

}
     540:	00 00       	nop
     542:	df 91       	pop	r29
     544:	cf 91       	pop	r28
     546:	08 95       	ret

00000548 <tempfsm_init>:
*   none
*
* returns:
*   nothing
*/
void tempfsm_init(){
     548:	cf 93       	push	r28
     54a:	df 93       	push	r29
     54c:	cd b7       	in	r28, 0x3d	; 61
     54e:	de b7       	in	r29, 0x3e	; 62

    fsm_state = NORM_1;
     550:	10 92 c3 03 	sts	0x03C3, r1	; 0x8003c3 <__data_end+0x1>
     554:	10 92 c2 03 	sts	0x03C2, r1	; 0x8003c2 <__data_end>

}
     558:	00 00       	nop
     55a:	df 91       	pop	r29
     55c:	cf 91       	pop	r28
     55e:	08 95       	ret

00000560 <update_tcrit_hi>:
*
* returns:
*   1 if error updating 0 if success
*/

int update_tcrit_hi(int value) {
     560:	cf 93       	push	r28
     562:	df 93       	push	r29
     564:	00 d0       	rcall	.+0      	; 0x566 <update_tcrit_hi+0x6>
     566:	cd b7       	in	r28, 0x3d	; 61
     568:	de b7       	in	r29, 0x3e	; 62
     56a:	9a 83       	std	Y+2, r25	; 0x02
     56c:	89 83       	std	Y+1, r24	; 0x01
    if(value <= config.hi_warn || value > 0x3FF){
     56e:	20 91 ac 04 	lds	r18, 0x04AC	; 0x8004ac <config+0x6>
     572:	30 91 ad 04 	lds	r19, 0x04AD	; 0x8004ad <config+0x7>
     576:	89 81       	ldd	r24, Y+1	; 0x01
     578:	9a 81       	ldd	r25, Y+2	; 0x02
     57a:	28 17       	cp	r18, r24
     57c:	39 07       	cpc	r19, r25
     57e:	2c f4       	brge	.+10     	; 0x58a <update_tcrit_hi+0x2a>
     580:	89 81       	ldd	r24, Y+1	; 0x01
     582:	9a 81       	ldd	r25, Y+2	; 0x02
     584:	81 15       	cp	r24, r1
     586:	94 40       	sbci	r25, 0x04	; 4
     588:	1c f0       	brlt	.+6      	; 0x590 <update_tcrit_hi+0x30>
        return 1;
     58a:	81 e0       	ldi	r24, 0x01	; 1
     58c:	90 e0       	ldi	r25, 0x00	; 0
     58e:	0c c0       	rjmp	.+24     	; 0x5a8 <update_tcrit_hi+0x48>
    }
    config.hi_alarm = value;
     590:	89 81       	ldd	r24, Y+1	; 0x01
     592:	9a 81       	ldd	r25, Y+2	; 0x02
     594:	90 93 ab 04 	sts	0x04AB, r25	; 0x8004ab <config+0x5>
     598:	80 93 aa 04 	sts	0x04AA, r24	; 0x8004aa <config+0x4>
    config_set_modified();
     59c:	0e 94 a5 03 	call	0x74a	; 0x74a <config_set_modified>
    config_update();
     5a0:	0e 94 f1 03 	call	0x7e2	; 0x7e2 <config_update>

    return 0;
     5a4:	80 e0       	ldi	r24, 0x00	; 0
     5a6:	90 e0       	ldi	r25, 0x00	; 0

}
     5a8:	0f 90       	pop	r0
     5aa:	0f 90       	pop	r0
     5ac:	df 91       	pop	r29
     5ae:	cf 91       	pop	r28
     5b0:	08 95       	ret

000005b2 <update_twarn_hi>:
*   int value
*
* returns:
*   1 if error updating 0 if success
*/
int update_twarn_hi(int value) {
     5b2:	cf 93       	push	r28
     5b4:	df 93       	push	r29
     5b6:	00 d0       	rcall	.+0      	; 0x5b8 <update_twarn_hi+0x6>
     5b8:	cd b7       	in	r28, 0x3d	; 61
     5ba:	de b7       	in	r29, 0x3e	; 62
     5bc:	9a 83       	std	Y+2, r25	; 0x02
     5be:	89 83       	std	Y+1, r24	; 0x01
    if(value < config.lo_warn || value > config.hi_alarm){
     5c0:	20 91 b0 04 	lds	r18, 0x04B0	; 0x8004b0 <config+0xa>
     5c4:	30 91 b1 04 	lds	r19, 0x04B1	; 0x8004b1 <config+0xb>
     5c8:	89 81       	ldd	r24, Y+1	; 0x01
     5ca:	9a 81       	ldd	r25, Y+2	; 0x02
     5cc:	82 17       	cp	r24, r18
     5ce:	93 07       	cpc	r25, r19
     5d0:	4c f0       	brlt	.+18     	; 0x5e4 <update_twarn_hi+0x32>
     5d2:	20 91 aa 04 	lds	r18, 0x04AA	; 0x8004aa <config+0x4>
     5d6:	30 91 ab 04 	lds	r19, 0x04AB	; 0x8004ab <config+0x5>
     5da:	89 81       	ldd	r24, Y+1	; 0x01
     5dc:	9a 81       	ldd	r25, Y+2	; 0x02
     5de:	28 17       	cp	r18, r24
     5e0:	39 07       	cpc	r19, r25
     5e2:	1c f4       	brge	.+6      	; 0x5ea <update_twarn_hi+0x38>
        return 1;
     5e4:	81 e0       	ldi	r24, 0x01	; 1
     5e6:	90 e0       	ldi	r25, 0x00	; 0
     5e8:	0c c0       	rjmp	.+24     	; 0x602 <update_twarn_hi+0x50>
    }

    config.hi_warn = value;
     5ea:	89 81       	ldd	r24, Y+1	; 0x01
     5ec:	9a 81       	ldd	r25, Y+2	; 0x02
     5ee:	90 93 ad 04 	sts	0x04AD, r25	; 0x8004ad <config+0x7>
     5f2:	80 93 ac 04 	sts	0x04AC, r24	; 0x8004ac <config+0x6>
    config_set_modified();
     5f6:	0e 94 a5 03 	call	0x74a	; 0x74a <config_set_modified>
    config_update();
     5fa:	0e 94 f1 03 	call	0x7e2	; 0x7e2 <config_update>
    return 0;
     5fe:	80 e0       	ldi	r24, 0x00	; 0
     600:	90 e0       	ldi	r25, 0x00	; 0

}
     602:	0f 90       	pop	r0
     604:	0f 90       	pop	r0
     606:	df 91       	pop	r29
     608:	cf 91       	pop	r28
     60a:	08 95       	ret

0000060c <update_tcrit_lo>:
*   int value
*
* returns:
*   1 if error updating 0 if success
*/
int update_tcrit_lo(int value) {
     60c:	cf 93       	push	r28
     60e:	df 93       	push	r29
     610:	00 d0       	rcall	.+0      	; 0x612 <update_tcrit_lo+0x6>
     612:	cd b7       	in	r28, 0x3d	; 61
     614:	de b7       	in	r29, 0x3e	; 62
     616:	9a 83       	std	Y+2, r25	; 0x02
     618:	89 83       	std	Y+1, r24	; 0x01
    if(value >= config.lo_alarm){
     61a:	20 91 ae 04 	lds	r18, 0x04AE	; 0x8004ae <config+0x8>
     61e:	30 91 af 04 	lds	r19, 0x04AF	; 0x8004af <config+0x9>
     622:	89 81       	ldd	r24, Y+1	; 0x01
     624:	9a 81       	ldd	r25, Y+2	; 0x02
     626:	82 17       	cp	r24, r18
     628:	93 07       	cpc	r25, r19
     62a:	1c f0       	brlt	.+6      	; 0x632 <update_tcrit_lo+0x26>
        return 1;
     62c:	81 e0       	ldi	r24, 0x01	; 1
     62e:	90 e0       	ldi	r25, 0x00	; 0
     630:	0a c0       	rjmp	.+20     	; 0x646 <update_tcrit_lo+0x3a>
    }

    config.lo_alarm = value;
     632:	89 81       	ldd	r24, Y+1	; 0x01
     634:	9a 81       	ldd	r25, Y+2	; 0x02
     636:	90 93 af 04 	sts	0x04AF, r25	; 0x8004af <config+0x9>
     63a:	80 93 ae 04 	sts	0x04AE, r24	; 0x8004ae <config+0x8>
    config_set_modified();
     63e:	0e 94 a5 03 	call	0x74a	; 0x74a <config_set_modified>
    return 0;
     642:	80 e0       	ldi	r24, 0x00	; 0
     644:	90 e0       	ldi	r25, 0x00	; 0
}
     646:	0f 90       	pop	r0
     648:	0f 90       	pop	r0
     64a:	df 91       	pop	r29
     64c:	cf 91       	pop	r28
     64e:	08 95       	ret

00000650 <update_twarn_lo>:
*
* returns:
*   1 if error updating 0 if success
*/

int update_twarn_lo(int value) {
     650:	cf 93       	push	r28
     652:	df 93       	push	r29
     654:	00 d0       	rcall	.+0      	; 0x656 <update_twarn_lo+0x6>
     656:	cd b7       	in	r28, 0x3d	; 61
     658:	de b7       	in	r29, 0x3e	; 62
     65a:	9a 83       	std	Y+2, r25	; 0x02
     65c:	89 83       	std	Y+1, r24	; 0x01
    if(value <= config.lo_alarm || value >= config.hi_warn){
     65e:	20 91 ae 04 	lds	r18, 0x04AE	; 0x8004ae <config+0x8>
     662:	30 91 af 04 	lds	r19, 0x04AF	; 0x8004af <config+0x9>
     666:	89 81       	ldd	r24, Y+1	; 0x01
     668:	9a 81       	ldd	r25, Y+2	; 0x02
     66a:	28 17       	cp	r18, r24
     66c:	39 07       	cpc	r19, r25
     66e:	4c f4       	brge	.+18     	; 0x682 <update_twarn_lo+0x32>
     670:	20 91 ac 04 	lds	r18, 0x04AC	; 0x8004ac <config+0x6>
     674:	30 91 ad 04 	lds	r19, 0x04AD	; 0x8004ad <config+0x7>
     678:	89 81       	ldd	r24, Y+1	; 0x01
     67a:	9a 81       	ldd	r25, Y+2	; 0x02
     67c:	82 17       	cp	r24, r18
     67e:	93 07       	cpc	r25, r19
     680:	1c f0       	brlt	.+6      	; 0x688 <update_twarn_lo+0x38>
        return 1;
     682:	81 e0       	ldi	r24, 0x01	; 1
     684:	90 e0       	ldi	r25, 0x00	; 0
     686:	0c c0       	rjmp	.+24     	; 0x6a0 <update_twarn_lo+0x50>
    }

    config.lo_warn = value;
     688:	89 81       	ldd	r24, Y+1	; 0x01
     68a:	9a 81       	ldd	r25, Y+2	; 0x02
     68c:	90 93 b1 04 	sts	0x04B1, r25	; 0x8004b1 <config+0xb>
     690:	80 93 b0 04 	sts	0x04B0, r24	; 0x8004b0 <config+0xa>
    config_set_modified();
     694:	0e 94 a5 03 	call	0x74a	; 0x74a <config_set_modified>
    config_update();
     698:	0e 94 f1 03 	call	0x7e2	; 0x7e2 <config_update>
    return 0;
     69c:	80 e0       	ldi	r24, 0x00	; 0
     69e:	90 e0       	ldi	r25, 0x00	; 0
}
     6a0:	0f 90       	pop	r0
     6a2:	0f 90       	pop	r0
     6a4:	df 91       	pop	r29
     6a6:	cf 91       	pop	r28
     6a8:	08 95       	ret

000006aa <wdt_init>:
*
* returns:
*   Nothing
*/
void wdt_init() {
    __builtin_avr_cli();
     6aa:	f8 94       	cli
    WDTCSR = (1 << WDCE) | (1 << WDE);
     6ac:	e0 e6       	ldi	r30, 0x60	; 96
     6ae:	f0 e0       	ldi	r31, 0x00	; 0
     6b0:	88 e1       	ldi	r24, 0x18	; 24
     6b2:	80 83       	st	Z, r24
    WDTCSR = 1 << WDIE | 1 << WDE | 1 << WDP2 | 1 << WDP1 | 1 << WDP0;
     6b4:	8f e4       	ldi	r24, 0x4F	; 79
     6b6:	80 83       	st	Z, r24
    __builtin_avr_sei();
     6b8:	78 94       	sei
     6ba:	08 95       	ret

000006bc <wdt_reset>:
*
* returns:
*   Nothing
*/
void wdt_reset() {
   __builtin_avr_wdr();
     6bc:	a8 95       	wdr
     6be:	08 95       	ret

000006c0 <wdt_force_restart>:
* returns:
*   Nothing
*/
void wdt_force_restart() {

    WDTCSR &= (0 << WDIE);
     6c0:	80 91 60 00 	lds	r24, 0x0060	; 0x800060 <__TEXT_REGION_LENGTH__+0x7e0060>
     6c4:	10 92 60 00 	sts	0x0060, r1	; 0x800060 <__TEXT_REGION_LENGTH__+0x7e0060>
     6c8:	ff cf       	rjmp	.-2      	; 0x6c8 <wdt_force_restart+0x8>

000006ca <__vector_6>:
*
* returns:
*   Nothing
*/
void __vector_6(void) __attribute__ ((signal,used, externally_visible));
void __vector_6() {
     6ca:	1f 92       	push	r1
     6cc:	0f 92       	push	r0
     6ce:	00 90 5f 00 	lds	r0, 0x005F	; 0x80005f <__TEXT_REGION_LENGTH__+0x7e005f>
     6d2:	0f 92       	push	r0
     6d4:	11 24       	eor	r1, r1
     6d6:	2f 93       	push	r18
     6d8:	3f 93       	push	r19
     6da:	4f 93       	push	r20
     6dc:	5f 93       	push	r21
     6de:	6f 93       	push	r22
     6e0:	7f 93       	push	r23
     6e2:	8f 93       	push	r24
     6e4:	9f 93       	push	r25
     6e6:	af 93       	push	r26
     6e8:	bf 93       	push	r27
     6ea:	ef 93       	push	r30
     6ec:	ff 93       	push	r31
     6ee:	cf 93       	push	r28
     6f0:	df 93       	push	r29
     6f2:	00 d0       	rcall	.+0      	; 0x6f4 <__vector_6+0x2a>
     6f4:	cd b7       	in	r28, 0x3d	; 61
     6f6:	de b7       	in	r29, 0x3e	; 62
    led_on();
     6f8:	0e 94 8b 05 	call	0xb16	; 0xb16 <led_on>
    log_add_record(EVENT_WDT);
     6fc:	82 e0       	ldi	r24, 0x02	; 2
     6fe:	0e 94 53 07 	call	0xea6	; 0xea6 <log_add_record>
    for(int i = 0; i < 16; i++){
     702:	1a 82       	std	Y+2, r1	; 0x02
     704:	19 82       	std	Y+1, r1	; 0x01
     706:	07 c0       	rjmp	.+14     	; 0x716 <__vector_6+0x4c>

       log_update_noisr();
     708:	0e 94 21 07 	call	0xe42	; 0xe42 <log_update_noisr>
*/
void __vector_6(void) __attribute__ ((signal,used, externally_visible));
void __vector_6() {
    led_on();
    log_add_record(EVENT_WDT);
    for(int i = 0; i < 16; i++){
     70c:	89 81       	ldd	r24, Y+1	; 0x01
     70e:	9a 81       	ldd	r25, Y+2	; 0x02
     710:	01 96       	adiw	r24, 0x01	; 1
     712:	9a 83       	std	Y+2, r25	; 0x02
     714:	89 83       	std	Y+1, r24	; 0x01
     716:	89 81       	ldd	r24, Y+1	; 0x01
     718:	9a 81       	ldd	r25, Y+2	; 0x02
     71a:	40 97       	sbiw	r24, 0x10	; 16
     71c:	ac f3       	brlt	.-22     	; 0x708 <__vector_6+0x3e>

       log_update_noisr();

    }
    config_update_noisr();
     71e:	0e 94 09 04 	call	0x812	; 0x812 <config_update_noisr>
    while(1);
     722:	ff cf       	rjmp	.-2      	; 0x722 <__vector_6+0x58>

00000724 <alarm_init>:
     724:	08 95       	ret

00000726 <alarm_send>:
     726:	cf 93       	push	r28
     728:	df 93       	push	r29
     72a:	ec 01       	movw	r28, r24
     72c:	8b ed       	ldi	r24, 0xDB	; 219
     72e:	91 e0       	ldi	r25, 0x01	; 1
     730:	0e 94 36 0c 	call	0x186c	; 0x186c <uart_writestr>
     734:	be 01       	movw	r22, r28
     736:	80 e0       	ldi	r24, 0x00	; 0
     738:	90 e0       	ldi	r25, 0x00	; 0
     73a:	0e 94 64 0c 	call	0x18c8	; 0x18c8 <uart_writedec32>
     73e:	80 e0       	ldi	r24, 0x00	; 0
     740:	92 e0       	ldi	r25, 0x02	; 2
     742:	df 91       	pop	r29
     744:	cf 91       	pop	r28
     746:	0c 94 36 0c 	jmp	0x186c	; 0x186c <uart_writestr>

0000074a <config_set_modified>:
     74a:	81 e0       	ldi	r24, 0x01	; 1
     74c:	80 93 c4 03 	sts	0x03C4, r24	; 0x8003c4 <modified>
     750:	08 95       	ret

00000752 <config_is_data_valid>:
     752:	80 91 a6 04 	lds	r24, 0x04A6	; 0x8004a6 <config>
     756:	81 34       	cpi	r24, 0x41	; 65
     758:	61 f4       	brne	.+24     	; 0x772 <config_is_data_valid+0x20>
     75a:	80 91 a7 04 	lds	r24, 0x04A7	; 0x8004a7 <config+0x1>
     75e:	83 35       	cpi	r24, 0x53	; 83
     760:	41 f4       	brne	.+16     	; 0x772 <config_is_data_valid+0x20>
     762:	81 e0       	ldi	r24, 0x01	; 1
     764:	90 e0       	ldi	r25, 0x00	; 0
     766:	20 91 a8 04 	lds	r18, 0x04A8	; 0x8004a8 <config+0x2>
     76a:	25 35       	cpi	r18, 0x55	; 85
     76c:	21 f0       	breq	.+8      	; 0x776 <config_is_data_valid+0x24>
     76e:	80 e0       	ldi	r24, 0x00	; 0
     770:	02 c0       	rjmp	.+4      	; 0x776 <config_is_data_valid+0x24>
     772:	80 e0       	ldi	r24, 0x00	; 0
     774:	90 e0       	ldi	r25, 0x00	; 0
     776:	e6 ea       	ldi	r30, 0xA6	; 166
     778:	f4 e0       	ldi	r31, 0x04	; 4
     77a:	20 e0       	ldi	r18, 0x00	; 0
     77c:	31 91       	ld	r19, Z+
     77e:	23 0f       	add	r18, r19
     780:	34 e0       	ldi	r19, 0x04	; 4
     782:	e9 3b       	cpi	r30, 0xB9	; 185
     784:	f3 07       	cpc	r31, r19
     786:	d1 f7       	brne	.-12     	; 0x77c <config_is_data_valid+0x2a>
     788:	22 23       	and	r18, r18
     78a:	11 f0       	breq	.+4      	; 0x790 <config_is_data_valid+0x3e>
     78c:	80 e0       	ldi	r24, 0x00	; 0
     78e:	90 e0       	ldi	r25, 0x00	; 0
     790:	08 95       	ret

00000792 <config_write_defaults>:
     792:	62 e1       	ldi	r22, 0x12	; 18
     794:	70 e0       	ldi	r23, 0x00	; 0
     796:	82 e0       	ldi	r24, 0x02	; 2
     798:	91 e0       	ldi	r25, 0x01	; 1
     79a:	0e 94 00 11 	call	0x2200	; 0x2200 <update_checksum>
     79e:	42 e1       	ldi	r20, 0x12	; 18
     7a0:	62 e0       	ldi	r22, 0x02	; 2
     7a2:	71 e0       	ldi	r23, 0x01	; 1
     7a4:	80 e4       	ldi	r24, 0x40	; 64
     7a6:	90 e0       	ldi	r25, 0x00	; 0
     7a8:	0c 94 35 05 	jmp	0xa6a	; 0xa6a <eeprom_writebuf>

000007ac <config_init>:
     7ac:	0e 94 7e 05 	call	0xafc	; 0xafc <eeprom_isbusy>
     7b0:	89 2b       	or	r24, r25
     7b2:	e1 f7       	brne	.-8      	; 0x7ac <config_init>
     7b4:	42 e1       	ldi	r20, 0x12	; 18
     7b6:	66 ea       	ldi	r22, 0xA6	; 166
     7b8:	74 e0       	ldi	r23, 0x04	; 4
     7ba:	80 e4       	ldi	r24, 0x40	; 64
     7bc:	90 e0       	ldi	r25, 0x00	; 0
     7be:	0e 94 69 05 	call	0xad2	; 0xad2 <eeprom_readbuf>
     7c2:	0e 94 a9 03 	call	0x752	; 0x752 <config_is_data_valid>
     7c6:	89 2b       	or	r24, r25
     7c8:	49 f4       	brne	.+18     	; 0x7dc <config_init+0x30>
     7ca:	0e 94 c9 03 	call	0x792	; 0x792 <config_write_defaults>
     7ce:	42 e1       	ldi	r20, 0x12	; 18
     7d0:	66 ea       	ldi	r22, 0xA6	; 166
     7d2:	74 e0       	ldi	r23, 0x04	; 4
     7d4:	80 e4       	ldi	r24, 0x40	; 64
     7d6:	90 e0       	ldi	r25, 0x00	; 0
     7d8:	0e 94 69 05 	call	0xad2	; 0xad2 <eeprom_readbuf>
     7dc:	10 92 c4 03 	sts	0x03C4, r1	; 0x8003c4 <modified>
     7e0:	08 95       	ret

000007e2 <config_update>:
     7e2:	0e 94 7e 05 	call	0xafc	; 0xafc <eeprom_isbusy>
     7e6:	89 2b       	or	r24, r25
     7e8:	99 f4       	brne	.+38     	; 0x810 <config_update+0x2e>
     7ea:	80 91 c4 03 	lds	r24, 0x03C4	; 0x8003c4 <modified>
     7ee:	88 23       	and	r24, r24
     7f0:	79 f0       	breq	.+30     	; 0x810 <config_update+0x2e>
     7f2:	62 e1       	ldi	r22, 0x12	; 18
     7f4:	70 e0       	ldi	r23, 0x00	; 0
     7f6:	86 ea       	ldi	r24, 0xA6	; 166
     7f8:	94 e0       	ldi	r25, 0x04	; 4
     7fa:	0e 94 00 11 	call	0x2200	; 0x2200 <update_checksum>
     7fe:	42 e1       	ldi	r20, 0x12	; 18
     800:	66 ea       	ldi	r22, 0xA6	; 166
     802:	74 e0       	ldi	r23, 0x04	; 4
     804:	80 e4       	ldi	r24, 0x40	; 64
     806:	90 e0       	ldi	r25, 0x00	; 0
     808:	0e 94 35 05 	call	0xa6a	; 0xa6a <eeprom_writebuf>
     80c:	10 92 c4 03 	sts	0x03C4, r1	; 0x8003c4 <modified>
     810:	08 95       	ret

00000812 <config_update_noisr>:
     812:	80 91 c4 03 	lds	r24, 0x03C4	; 0x8003c4 <modified>
     816:	88 23       	and	r24, r24
     818:	79 f0       	breq	.+30     	; 0x838 <config_update_noisr+0x26>
     81a:	62 e1       	ldi	r22, 0x12	; 18
     81c:	70 e0       	ldi	r23, 0x00	; 0
     81e:	86 ea       	ldi	r24, 0xA6	; 166
     820:	94 e0       	ldi	r25, 0x04	; 4
     822:	0e 94 00 11 	call	0x2200	; 0x2200 <update_checksum>
     826:	42 e1       	ldi	r20, 0x12	; 18
     828:	66 ea       	ldi	r22, 0xA6	; 166
     82a:	74 e0       	ldi	r23, 0x04	; 4
     82c:	80 e4       	ldi	r24, 0x40	; 64
     82e:	90 e0       	ldi	r25, 0x00	; 0
     830:	0e 94 52 05 	call	0xaa4	; 0xaa4 <eeprom_writebuf_noisr>
     834:	10 92 c4 03 	sts	0x03C4, r1	; 0x8003c4 <modified>
     838:	08 95       	ret

0000083a <__vector_14>:
     83a:	1f 92       	push	r1
     83c:	0f 92       	push	r0
     83e:	0f b6       	in	r0, 0x3f	; 63
     840:	0f 92       	push	r0
     842:	11 24       	eor	r1, r1
     844:	2f 93       	push	r18
     846:	3f 93       	push	r19
     848:	8f 93       	push	r24
     84a:	9f 93       	push	r25
     84c:	af 93       	push	r26
     84e:	bf 93       	push	r27
     850:	20 91 cf 03 	lds	r18, 0x03CF	; 0x8003cf <delay_count>
     854:	30 91 d0 03 	lds	r19, 0x03D0	; 0x8003d0 <delay_count+0x1>
     858:	80 91 c7 03 	lds	r24, 0x03C7	; 0x8003c7 <delay_limit>
     85c:	90 91 c8 03 	lds	r25, 0x03C8	; 0x8003c8 <delay_limit+0x1>
     860:	28 17       	cp	r18, r24
     862:	39 07       	cpc	r19, r25
     864:	49 f0       	breq	.+18     	; 0x878 <__vector_14+0x3e>
     866:	80 91 cf 03 	lds	r24, 0x03CF	; 0x8003cf <delay_count>
     86a:	90 91 d0 03 	lds	r25, 0x03D0	; 0x8003d0 <delay_count+0x1>
     86e:	01 96       	adiw	r24, 0x01	; 1
     870:	90 93 d0 03 	sts	0x03D0, r25	; 0x8003d0 <delay_count+0x1>
     874:	80 93 cf 03 	sts	0x03CF, r24	; 0x8003cf <delay_count>
     878:	20 91 d1 03 	lds	r18, 0x03D1	; 0x8003d1 <delay_count+0x2>
     87c:	30 91 d2 03 	lds	r19, 0x03D2	; 0x8003d2 <delay_count+0x3>
     880:	80 91 c9 03 	lds	r24, 0x03C9	; 0x8003c9 <delay_limit+0x2>
     884:	90 91 ca 03 	lds	r25, 0x03CA	; 0x8003ca <delay_limit+0x3>
     888:	28 17       	cp	r18, r24
     88a:	39 07       	cpc	r19, r25
     88c:	49 f0       	breq	.+18     	; 0x8a0 <__vector_14+0x66>
     88e:	80 91 d1 03 	lds	r24, 0x03D1	; 0x8003d1 <delay_count+0x2>
     892:	90 91 d2 03 	lds	r25, 0x03D2	; 0x8003d2 <delay_count+0x3>
     896:	01 96       	adiw	r24, 0x01	; 1
     898:	90 93 d2 03 	sts	0x03D2, r25	; 0x8003d2 <delay_count+0x3>
     89c:	80 93 d1 03 	sts	0x03D1, r24	; 0x8003d1 <delay_count+0x2>
     8a0:	80 91 cb 03 	lds	r24, 0x03CB	; 0x8003cb <ms>
     8a4:	90 91 cc 03 	lds	r25, 0x03CC	; 0x8003cc <ms+0x1>
     8a8:	a0 91 cd 03 	lds	r26, 0x03CD	; 0x8003cd <ms+0x2>
     8ac:	b0 91 ce 03 	lds	r27, 0x03CE	; 0x8003ce <ms+0x3>
     8b0:	01 96       	adiw	r24, 0x01	; 1
     8b2:	a1 1d       	adc	r26, r1
     8b4:	b1 1d       	adc	r27, r1
     8b6:	80 93 cb 03 	sts	0x03CB, r24	; 0x8003cb <ms>
     8ba:	90 93 cc 03 	sts	0x03CC, r25	; 0x8003cc <ms+0x1>
     8be:	a0 93 cd 03 	sts	0x03CD, r26	; 0x8003cd <ms+0x2>
     8c2:	b0 93 ce 03 	sts	0x03CE, r27	; 0x8003ce <ms+0x3>
     8c6:	bf 91       	pop	r27
     8c8:	af 91       	pop	r26
     8ca:	9f 91       	pop	r25
     8cc:	8f 91       	pop	r24
     8ce:	3f 91       	pop	r19
     8d0:	2f 91       	pop	r18
     8d2:	0f 90       	pop	r0
     8d4:	0f be       	out	0x3f, r0	; 63
     8d6:	0f 90       	pop	r0
     8d8:	1f 90       	pop	r1
     8da:	18 95       	reti

000008dc <delay_init>:
     8dc:	89 ef       	ldi	r24, 0xF9	; 249
     8de:	87 bd       	out	0x27, r24	; 39
     8e0:	82 e0       	ldi	r24, 0x02	; 2
     8e2:	84 bd       	out	0x24, r24	; 36
     8e4:	93 e0       	ldi	r25, 0x03	; 3
     8e6:	95 bd       	out	0x25, r25	; 37
     8e8:	78 94       	sei
     8ea:	80 93 6e 00 	sts	0x006E, r24	; 0x80006e <__TEXT_REGION_LENGTH__+0x7e006e>
     8ee:	10 92 cb 03 	sts	0x03CB, r1	; 0x8003cb <ms>
     8f2:	10 92 cc 03 	sts	0x03CC, r1	; 0x8003cc <ms+0x1>
     8f6:	10 92 cd 03 	sts	0x03CD, r1	; 0x8003cd <ms+0x2>
     8fa:	10 92 ce 03 	sts	0x03CE, r1	; 0x8003ce <ms+0x3>
     8fe:	08 95       	ret

00000900 <delay_get>:
     900:	82 30       	cpi	r24, 0x02	; 2
     902:	91 05       	cpc	r25, r1
     904:	50 f4       	brcc	.+20     	; 0x91a <delay_get+0x1a>
     906:	f8 94       	cli
     908:	88 0f       	add	r24, r24
     90a:	99 1f       	adc	r25, r25
     90c:	fc 01       	movw	r30, r24
     90e:	e1 53       	subi	r30, 0x31	; 49
     910:	fc 4f       	sbci	r31, 0xFC	; 252
     912:	80 81       	ld	r24, Z
     914:	91 81       	ldd	r25, Z+1	; 0x01
     916:	78 94       	sei
     918:	08 95       	ret
     91a:	80 e0       	ldi	r24, 0x00	; 0
     91c:	90 e0       	ldi	r25, 0x00	; 0
     91e:	08 95       	ret

00000920 <delay_isdone>:
     920:	82 30       	cpi	r24, 0x02	; 2
     922:	91 05       	cpc	r25, r1
     924:	98 f4       	brcc	.+38     	; 0x94c <delay_isdone+0x2c>
     926:	88 0f       	add	r24, r24
     928:	99 1f       	adc	r25, r25
     92a:	fc 01       	movw	r30, r24
     92c:	e1 53       	subi	r30, 0x31	; 49
     92e:	fc 4f       	sbci	r31, 0xFC	; 252
     930:	20 81       	ld	r18, Z
     932:	31 81       	ldd	r19, Z+1	; 0x01
     934:	fc 01       	movw	r30, r24
     936:	e9 53       	subi	r30, 0x39	; 57
     938:	fc 4f       	sbci	r31, 0xFC	; 252
     93a:	81 e0       	ldi	r24, 0x01	; 1
     93c:	90 e0       	ldi	r25, 0x00	; 0
     93e:	40 81       	ld	r20, Z
     940:	51 81       	ldd	r21, Z+1	; 0x01
     942:	42 17       	cp	r20, r18
     944:	53 07       	cpc	r21, r19
     946:	21 f0       	breq	.+8      	; 0x950 <delay_isdone+0x30>
     948:	80 e0       	ldi	r24, 0x00	; 0
     94a:	08 95       	ret
     94c:	80 e0       	ldi	r24, 0x00	; 0
     94e:	90 e0       	ldi	r25, 0x00	; 0
     950:	08 95       	ret

00000952 <delay_set>:
     952:	0f 93       	push	r16
     954:	1f 93       	push	r17
     956:	cf 93       	push	r28
     958:	df 93       	push	r29
     95a:	ec 01       	movw	r28, r24
     95c:	8b 01       	movw	r16, r22
     95e:	80 91 c5 03 	lds	r24, 0x03C5	; 0x8003c5 <initialized>
     962:	90 91 c6 03 	lds	r25, 0x03C6	; 0x8003c6 <initialized+0x1>
     966:	89 2b       	or	r24, r25
     968:	41 f4       	brne	.+16     	; 0x97a <delay_set+0x28>
     96a:	0e 94 6e 04 	call	0x8dc	; 0x8dc <delay_init>
     96e:	81 e0       	ldi	r24, 0x01	; 1
     970:	90 e0       	ldi	r25, 0x00	; 0
     972:	90 93 c6 03 	sts	0x03C6, r25	; 0x8003c6 <initialized+0x1>
     976:	80 93 c5 03 	sts	0x03C5, r24	; 0x8003c5 <initialized>
     97a:	c2 30       	cpi	r28, 0x02	; 2
     97c:	d1 05       	cpc	r29, r1
     97e:	70 f4       	brcc	.+28     	; 0x99c <delay_set+0x4a>
     980:	8f b7       	in	r24, 0x3f	; 63
     982:	f8 94       	cli
     984:	cc 0f       	add	r28, r28
     986:	dd 1f       	adc	r29, r29
     988:	fe 01       	movw	r30, r28
     98a:	e9 53       	subi	r30, 0x39	; 57
     98c:	fc 4f       	sbci	r31, 0xFC	; 252
     98e:	11 83       	std	Z+1, r17	; 0x01
     990:	00 83       	st	Z, r16
     992:	c1 53       	subi	r28, 0x31	; 49
     994:	dc 4f       	sbci	r29, 0xFC	; 252
     996:	19 82       	std	Y+1, r1	; 0x01
     998:	18 82       	st	Y, r1
     99a:	8f bf       	out	0x3f, r24	; 63
     99c:	df 91       	pop	r29
     99e:	cf 91       	pop	r28
     9a0:	1f 91       	pop	r17
     9a2:	0f 91       	pop	r16
     9a4:	08 95       	ret

000009a6 <millis>:
     9a6:	80 91 c5 03 	lds	r24, 0x03C5	; 0x8003c5 <initialized>
     9aa:	90 91 c6 03 	lds	r25, 0x03C6	; 0x8003c6 <initialized+0x1>
     9ae:	89 2b       	or	r24, r25
     9b0:	41 f4       	brne	.+16     	; 0x9c2 <millis+0x1c>
     9b2:	0e 94 6e 04 	call	0x8dc	; 0x8dc <delay_init>
     9b6:	81 e0       	ldi	r24, 0x01	; 1
     9b8:	90 e0       	ldi	r25, 0x00	; 0
     9ba:	90 93 c6 03 	sts	0x03C6, r25	; 0x8003c6 <initialized+0x1>
     9be:	80 93 c5 03 	sts	0x03C5, r24	; 0x8003c5 <initialized>
     9c2:	f8 94       	cli
     9c4:	60 91 cb 03 	lds	r22, 0x03CB	; 0x8003cb <ms>
     9c8:	70 91 cc 03 	lds	r23, 0x03CC	; 0x8003cc <ms+0x1>
     9cc:	80 91 cd 03 	lds	r24, 0x03CD	; 0x8003cd <ms+0x2>
     9d0:	90 91 ce 03 	lds	r25, 0x03CE	; 0x8003ce <ms+0x3>
     9d4:	78 94       	sei
     9d6:	08 95       	ret

000009d8 <eeprom_startwrite>:
     9d8:	fa 9a       	sbi	0x1f, 2	; 31
     9da:	f9 9a       	sbi	0x1f, 1	; 31
     9dc:	08 95       	ret

000009de <__vector_22>:
     9de:	1f 92       	push	r1
     9e0:	0f 92       	push	r0
     9e2:	0f b6       	in	r0, 0x3f	; 63
     9e4:	0f 92       	push	r0
     9e6:	11 24       	eor	r1, r1
     9e8:	2f 93       	push	r18
     9ea:	3f 93       	push	r19
     9ec:	4f 93       	push	r20
     9ee:	5f 93       	push	r21
     9f0:	6f 93       	push	r22
     9f2:	7f 93       	push	r23
     9f4:	8f 93       	push	r24
     9f6:	9f 93       	push	r25
     9f8:	af 93       	push	r26
     9fa:	bf 93       	push	r27
     9fc:	ef 93       	push	r30
     9fe:	ff 93       	push	r31
     a00:	e0 91 fc 04 	lds	r30, 0x04FC	; 0x8004fc <bufidx>
     a04:	80 91 bb 04 	lds	r24, 0x04BB	; 0x8004bb <writesize>
     a08:	e8 17       	cp	r30, r24
     a0a:	20 f0       	brcs	.+8      	; 0xa14 <__vector_22+0x36>
     a0c:	fb 98       	cbi	0x1f, 3	; 31
     a0e:	10 92 b8 04 	sts	0x04B8, r1	; 0x8004b8 <write_busy>
     a12:	1a c0       	rjmp	.+52     	; 0xa48 <__vector_22+0x6a>
     a14:	80 91 b9 04 	lds	r24, 0x04B9	; 0x8004b9 <writeaddr>
     a18:	90 91 ba 04 	lds	r25, 0x04BA	; 0x8004ba <writeaddr+0x1>
     a1c:	92 bd       	out	0x22, r25	; 34
     a1e:	81 bd       	out	0x21, r24	; 33
     a20:	81 e0       	ldi	r24, 0x01	; 1
     a22:	8e 0f       	add	r24, r30
     a24:	80 93 fc 04 	sts	0x04FC, r24	; 0x8004fc <bufidx>
     a28:	f0 e0       	ldi	r31, 0x00	; 0
     a2a:	e4 54       	subi	r30, 0x44	; 68
     a2c:	fb 4f       	sbci	r31, 0xFB	; 251
     a2e:	80 81       	ld	r24, Z
     a30:	80 bd       	out	0x20, r24	; 32
     a32:	80 91 b9 04 	lds	r24, 0x04B9	; 0x8004b9 <writeaddr>
     a36:	90 91 ba 04 	lds	r25, 0x04BA	; 0x8004ba <writeaddr+0x1>
     a3a:	01 96       	adiw	r24, 0x01	; 1
     a3c:	90 93 ba 04 	sts	0x04BA, r25	; 0x8004ba <writeaddr+0x1>
     a40:	80 93 b9 04 	sts	0x04B9, r24	; 0x8004b9 <writeaddr>
     a44:	0e 94 ec 04 	call	0x9d8	; 0x9d8 <eeprom_startwrite>
     a48:	ff 91       	pop	r31
     a4a:	ef 91       	pop	r30
     a4c:	bf 91       	pop	r27
     a4e:	af 91       	pop	r26
     a50:	9f 91       	pop	r25
     a52:	8f 91       	pop	r24
     a54:	7f 91       	pop	r23
     a56:	6f 91       	pop	r22
     a58:	5f 91       	pop	r21
     a5a:	4f 91       	pop	r20
     a5c:	3f 91       	pop	r19
     a5e:	2f 91       	pop	r18
     a60:	0f 90       	pop	r0
     a62:	0f be       	out	0x3f, r0	; 63
     a64:	0f 90       	pop	r0
     a66:	1f 90       	pop	r1
     a68:	18 95       	reti

00000a6a <eeprom_writebuf>:
     a6a:	20 91 b8 04 	lds	r18, 0x04B8	; 0x8004b8 <write_busy>
     a6e:	21 11       	cpse	r18, r1
     a70:	fc cf       	rjmp	.-8      	; 0xa6a <eeprom_writebuf>
     a72:	90 93 ba 04 	sts	0x04BA, r25	; 0x8004ba <writeaddr+0x1>
     a76:	80 93 b9 04 	sts	0x04B9, r24	; 0x8004b9 <writeaddr>
     a7a:	81 e0       	ldi	r24, 0x01	; 1
     a7c:	80 93 b8 04 	sts	0x04B8, r24	; 0x8004b8 <write_busy>
     a80:	10 92 fc 04 	sts	0x04FC, r1	; 0x8004fc <bufidx>
     a84:	40 93 bb 04 	sts	0x04BB, r20	; 0x8004bb <writesize>
     a88:	96 2f       	mov	r25, r22
     a8a:	ac eb       	ldi	r26, 0xBC	; 188
     a8c:	b4 e0       	ldi	r27, 0x04	; 4
     a8e:	fb 01       	movw	r30, r22
     a90:	8e 2f       	mov	r24, r30
     a92:	89 1b       	sub	r24, r25
     a94:	84 17       	cp	r24, r20
     a96:	18 f4       	brcc	.+6      	; 0xa9e <eeprom_writebuf+0x34>
     a98:	81 91       	ld	r24, Z+
     a9a:	8d 93       	st	X+, r24
     a9c:	f9 cf       	rjmp	.-14     	; 0xa90 <eeprom_writebuf+0x26>
     a9e:	78 94       	sei
     aa0:	fb 9a       	sbi	0x1f, 3	; 31
     aa2:	08 95       	ret

00000aa4 <eeprom_writebuf_noisr>:
     aa4:	fb 01       	movw	r30, r22
     aa6:	86 1b       	sub	r24, r22
     aa8:	97 0b       	sbc	r25, r23
     aaa:	50 e0       	ldi	r21, 0x00	; 0
     aac:	dc 01       	movw	r26, r24
     aae:	ae 0f       	add	r26, r30
     ab0:	bf 1f       	adc	r27, r31
     ab2:	9f 01       	movw	r18, r30
     ab4:	26 1b       	sub	r18, r22
     ab6:	37 0b       	sbc	r19, r23
     ab8:	24 17       	cp	r18, r20
     aba:	35 07       	cpc	r19, r21
     abc:	48 f4       	brcc	.+18     	; 0xad0 <eeprom_writebuf_noisr+0x2c>
     abe:	f9 99       	sbic	0x1f, 1	; 31
     ac0:	fe cf       	rjmp	.-4      	; 0xabe <eeprom_writebuf_noisr+0x1a>
     ac2:	b2 bd       	out	0x22, r27	; 34
     ac4:	a1 bd       	out	0x21, r26	; 33
     ac6:	21 91       	ld	r18, Z+
     ac8:	20 bd       	out	0x20, r18	; 32
     aca:	fa 9a       	sbi	0x1f, 2	; 31
     acc:	f9 9a       	sbi	0x1f, 1	; 31
     ace:	ee cf       	rjmp	.-36     	; 0xaac <eeprom_writebuf_noisr+0x8>
     ad0:	08 95       	ret

00000ad2 <eeprom_readbuf>:
     ad2:	20 91 b8 04 	lds	r18, 0x04B8	; 0x8004b8 <write_busy>
     ad6:	21 11       	cpse	r18, r1
     ad8:	fc cf       	rjmp	.-8      	; 0xad2 <eeprom_readbuf>
     ada:	fb 01       	movw	r30, r22
     adc:	86 1b       	sub	r24, r22
     ade:	97 0b       	sbc	r25, r23
     ae0:	2e 2f       	mov	r18, r30
     ae2:	26 1b       	sub	r18, r22
     ae4:	24 17       	cp	r18, r20
     ae6:	48 f4       	brcc	.+18     	; 0xafa <eeprom_readbuf+0x28>
     ae8:	9c 01       	movw	r18, r24
     aea:	2e 0f       	add	r18, r30
     aec:	3f 1f       	adc	r19, r31
     aee:	32 bd       	out	0x22, r19	; 34
     af0:	21 bd       	out	0x21, r18	; 33
     af2:	f8 9a       	sbi	0x1f, 0	; 31
     af4:	20 b5       	in	r18, 0x20	; 32
     af6:	21 93       	st	Z+, r18
     af8:	f3 cf       	rjmp	.-26     	; 0xae0 <eeprom_readbuf+0xe>
     afa:	08 95       	ret

00000afc <eeprom_isbusy>:
     afc:	80 91 b8 04 	lds	r24, 0x04B8	; 0x8004b8 <write_busy>
     b00:	90 e0       	ldi	r25, 0x00	; 0
     b02:	08 95       	ret

00000b04 <led_init>:
     b04:	60 e0       	ldi	r22, 0x00	; 0
     b06:	70 e0       	ldi	r23, 0x00	; 0
     b08:	80 e0       	ldi	r24, 0x00	; 0
     b0a:	90 e0       	ldi	r25, 0x00	; 0
     b0c:	0e 94 a9 04 	call	0x952	; 0x952 <delay_set>
     b10:	21 9a       	sbi	0x04, 1	; 4
     b12:	29 98       	cbi	0x05, 1	; 5
     b14:	08 95       	ret

00000b16 <led_on>:
     b16:	29 9a       	sbi	0x05, 1	; 5
     b18:	08 95       	ret

00000b1a <led_off>:
     b1a:	29 98       	cbi	0x05, 1	; 5
     b1c:	08 95       	ret

00000b1e <led_set_blink>:
     b1e:	90 93 d4 03 	sts	0x03D4, r25	; 0x8003d4 <blink_msg+0x1>
     b22:	80 93 d3 03 	sts	0x03D3, r24	; 0x8003d3 <blink_msg>
     b26:	10 92 d7 03 	sts	0x03D7, r1	; 0x8003d7 <blink_pos+0x1>
     b2a:	10 92 d6 03 	sts	0x03D6, r1	; 0x8003d6 <blink_pos>
     b2e:	10 92 d5 03 	sts	0x03D5, r1	; 0x8003d5 <blink_state>
     b32:	60 e0       	ldi	r22, 0x00	; 0
     b34:	70 e0       	ldi	r23, 0x00	; 0
     b36:	80 e0       	ldi	r24, 0x00	; 0
     b38:	90 e0       	ldi	r25, 0x00	; 0
     b3a:	0e 94 a9 04 	call	0x952	; 0x952 <delay_set>
     b3e:	0c 94 8d 05 	jmp	0xb1a	; 0xb1a <led_off>

00000b42 <led_update>:
     b42:	80 91 d3 03 	lds	r24, 0x03D3	; 0x8003d3 <blink_msg>
     b46:	90 91 d4 03 	lds	r25, 0x03D4	; 0x8003d4 <blink_msg+0x1>
     b4a:	89 2b       	or	r24, r25
     b4c:	09 f4       	brne	.+2      	; 0xb50 <led_update+0xe>
     b4e:	52 c0       	rjmp	.+164    	; 0xbf4 <led_update+0xb2>
     b50:	80 e0       	ldi	r24, 0x00	; 0
     b52:	90 e0       	ldi	r25, 0x00	; 0
     b54:	0e 94 90 04 	call	0x920	; 0x920 <delay_isdone>
     b58:	89 2b       	or	r24, r25
     b5a:	09 f4       	brne	.+2      	; 0xb5e <led_update+0x1c>
     b5c:	4b c0       	rjmp	.+150    	; 0xbf4 <led_update+0xb2>
     b5e:	80 91 d5 03 	lds	r24, 0x03D5	; 0x8003d5 <blink_state>
     b62:	81 11       	cpse	r24, r1
     b64:	34 c0       	rjmp	.+104    	; 0xbce <led_update+0x8c>
     b66:	20 91 d6 03 	lds	r18, 0x03D6	; 0x8003d6 <blink_pos>
     b6a:	30 91 d7 03 	lds	r19, 0x03D7	; 0x8003d7 <blink_pos+0x1>
     b6e:	e0 91 d3 03 	lds	r30, 0x03D3	; 0x8003d3 <blink_msg>
     b72:	f0 91 d4 03 	lds	r31, 0x03D4	; 0x8003d4 <blink_msg+0x1>
     b76:	e2 0f       	add	r30, r18
     b78:	f3 1f       	adc	r31, r19
     b7a:	80 81       	ld	r24, Z
     b7c:	80 32       	cpi	r24, 0x20	; 32
     b7e:	e9 f0       	breq	.+58     	; 0xbba <led_update+0x78>
     b80:	3c f4       	brge	.+14     	; 0xb90 <led_update+0x4e>
     b82:	81 11       	cpse	r24, r1
     b84:	1d c0       	rjmp	.+58     	; 0xbc0 <led_update+0x7e>
     b86:	10 92 d7 03 	sts	0x03D7, r1	; 0x8003d7 <blink_pos+0x1>
     b8a:	10 92 d6 03 	sts	0x03D6, r1	; 0x8003d6 <blink_pos>
     b8e:	08 95       	ret
     b90:	8d 32       	cpi	r24, 0x2D	; 45
     b92:	39 f0       	breq	.+14     	; 0xba2 <led_update+0x60>
     b94:	8e 32       	cpi	r24, 0x2E	; 46
     b96:	a1 f4       	brne	.+40     	; 0xbc0 <led_update+0x7e>
     b98:	0e 94 8b 05 	call	0xb16	; 0xb16 <led_on>
     b9c:	6a ef       	ldi	r22, 0xFA	; 250
     b9e:	70 e0       	ldi	r23, 0x00	; 0
     ba0:	04 c0       	rjmp	.+8      	; 0xbaa <led_update+0x68>
     ba2:	0e 94 8b 05 	call	0xb16	; 0xb16 <led_on>
     ba6:	6e ee       	ldi	r22, 0xEE	; 238
     ba8:	72 e0       	ldi	r23, 0x02	; 2
     baa:	80 e0       	ldi	r24, 0x00	; 0
     bac:	90 e0       	ldi	r25, 0x00	; 0
     bae:	0e 94 a9 04 	call	0x952	; 0x952 <delay_set>
     bb2:	81 e0       	ldi	r24, 0x01	; 1
     bb4:	80 93 d5 03 	sts	0x03D5, r24	; 0x8003d5 <blink_state>
     bb8:	08 95       	ret
     bba:	68 ee       	ldi	r22, 0xE8	; 232
     bbc:	73 e0       	ldi	r23, 0x03	; 3
     bbe:	0b c0       	rjmp	.+22     	; 0xbd6 <led_update+0x94>
     bc0:	2f 5f       	subi	r18, 0xFF	; 255
     bc2:	3f 4f       	sbci	r19, 0xFF	; 255
     bc4:	30 93 d7 03 	sts	0x03D7, r19	; 0x8003d7 <blink_pos+0x1>
     bc8:	20 93 d6 03 	sts	0x03D6, r18	; 0x8003d6 <blink_pos>
     bcc:	08 95       	ret
     bce:	0e 94 8d 05 	call	0xb1a	; 0xb1a <led_off>
     bd2:	64 e6       	ldi	r22, 0x64	; 100
     bd4:	70 e0       	ldi	r23, 0x00	; 0
     bd6:	80 e0       	ldi	r24, 0x00	; 0
     bd8:	90 e0       	ldi	r25, 0x00	; 0
     bda:	0e 94 a9 04 	call	0x952	; 0x952 <delay_set>
     bde:	10 92 d5 03 	sts	0x03D5, r1	; 0x8003d5 <blink_state>
     be2:	80 91 d6 03 	lds	r24, 0x03D6	; 0x8003d6 <blink_pos>
     be6:	90 91 d7 03 	lds	r25, 0x03D7	; 0x8003d7 <blink_pos+0x1>
     bea:	01 96       	adiw	r24, 0x01	; 1
     bec:	90 93 d7 03 	sts	0x03D7, r25	; 0x8003d7 <blink_pos+0x1>
     bf0:	80 93 d6 03 	sts	0x03D6, r24	; 0x8003d6 <blink_pos>
     bf4:	08 95       	ret

00000bf6 <led_is_on>:
     bf6:	85 b1       	in	r24, 0x05	; 5
     bf8:	86 95       	lsr	r24
     bfa:	81 70       	andi	r24, 0x01	; 1
     bfc:	90 e0       	ldi	r25, 0x00	; 0
     bfe:	08 95       	ret

00000c00 <log_is_data_valid>:
     c00:	80 31       	cpi	r24, 0x10	; 16
     c02:	91 05       	cpc	r25, r1
     c04:	04 f5       	brge	.+64     	; 0xc46 <log_is_data_valid+0x46>
     c06:	27 e0       	ldi	r18, 0x07	; 7
     c08:	28 9f       	mul	r18, r24
     c0a:	a0 01       	movw	r20, r0
     c0c:	29 9f       	mul	r18, r25
     c0e:	50 0d       	add	r21, r0
     c10:	11 24       	eor	r1, r1
     c12:	fa 01       	movw	r30, r20
     c14:	e5 52       	subi	r30, 0x25	; 37
     c16:	fc 4f       	sbci	r31, 0xFC	; 252
     c18:	80 81       	ld	r24, Z
     c1a:	81 32       	cpi	r24, 0x21	; 33
     c1c:	a0 f4       	brcc	.+40     	; 0xc46 <log_is_data_valid+0x46>
     c1e:	80 e0       	ldi	r24, 0x00	; 0
     c20:	90 e0       	ldi	r25, 0x00	; 0
     c22:	20 e0       	ldi	r18, 0x00	; 0
     c24:	fa 01       	movw	r30, r20
     c26:	e8 0f       	add	r30, r24
     c28:	f9 1f       	adc	r31, r25
     c2a:	e5 52       	subi	r30, 0x25	; 37
     c2c:	fc 4f       	sbci	r31, 0xFC	; 252
     c2e:	30 81       	ld	r19, Z
     c30:	23 0f       	add	r18, r19
     c32:	01 96       	adiw	r24, 0x01	; 1
     c34:	87 30       	cpi	r24, 0x07	; 7
     c36:	91 05       	cpc	r25, r1
     c38:	a9 f7       	brne	.-22     	; 0xc24 <log_is_data_valid+0x24>
     c3a:	81 e0       	ldi	r24, 0x01	; 1
     c3c:	90 e0       	ldi	r25, 0x00	; 0
     c3e:	22 23       	and	r18, r18
     c40:	21 f0       	breq	.+8      	; 0xc4a <log_is_data_valid+0x4a>
     c42:	80 e0       	ldi	r24, 0x00	; 0
     c44:	08 95       	ret
     c46:	80 e0       	ldi	r24, 0x00	; 0
     c48:	90 e0       	ldi	r25, 0x00	; 0
     c4a:	08 95       	ret

00000c4c <log_init>:
     c4c:	6f 92       	push	r6
     c4e:	7f 92       	push	r7
     c50:	8f 92       	push	r8
     c52:	9f 92       	push	r9
     c54:	af 92       	push	r10
     c56:	bf 92       	push	r11
     c58:	cf 92       	push	r12
     c5a:	df 92       	push	r13
     c5c:	ef 92       	push	r14
     c5e:	ff 92       	push	r15
     c60:	0f 93       	push	r16
     c62:	1f 93       	push	r17
     c64:	cf 93       	push	r28
     c66:	df 93       	push	r29
     c68:	0e 94 7e 05 	call	0xafc	; 0xafc <eeprom_isbusy>
     c6c:	89 2b       	or	r24, r25
     c6e:	e1 f7       	brne	.-8      	; 0xc68 <log_init+0x1c>
     c70:	0b e4       	ldi	r16, 0x4B	; 75
     c72:	14 e0       	ldi	r17, 0x04	; 4
     c74:	c0 e8       	ldi	r28, 0x80	; 128
     c76:	d0 e0       	ldi	r29, 0x00	; 0
     c78:	be 01       	movw	r22, r28
     c7a:	65 5a       	subi	r22, 0xA5	; 165
     c7c:	7c 4f       	sbci	r23, 0xFC	; 252
     c7e:	47 e0       	ldi	r20, 0x07	; 7
     c80:	ce 01       	movw	r24, r28
     c82:	0e 94 69 05 	call	0xad2	; 0xad2 <eeprom_readbuf>
     c86:	f8 01       	movw	r30, r16
     c88:	11 92       	st	Z+, r1
     c8a:	8f 01       	movw	r16, r30
     c8c:	27 96       	adiw	r28, 0x07	; 7
     c8e:	c0 3f       	cpi	r28, 0xF0	; 240
     c90:	d1 05       	cpc	r29, r1
     c92:	91 f7       	brne	.-28     	; 0xc78 <log_init+0x2c>
     c94:	4b ed       	ldi	r20, 0xDB	; 219
     c96:	e4 2e       	mov	r14, r20
     c98:	43 e0       	ldi	r20, 0x03	; 3
     c9a:	f4 2e       	mov	r15, r20
     c9c:	87 01       	movw	r16, r14
     c9e:	c0 e0       	ldi	r28, 0x00	; 0
     ca0:	d0 e0       	ldi	r29, 0x00	; 0
     ca2:	d1 2c       	mov	r13, r1
     ca4:	b1 2c       	mov	r11, r1
     ca6:	77 24       	eor	r7, r7
     ca8:	7a 94       	dec	r7
     caa:	ce 01       	movw	r24, r28
     cac:	0e 94 00 06 	call	0xc00	; 0xc00 <log_is_data_valid>
     cb0:	89 2b       	or	r24, r25
     cb2:	41 f0       	breq	.+16     	; 0xcc4 <log_init+0x78>
     cb4:	f8 01       	movw	r30, r16
     cb6:	80 81       	ld	r24, Z
     cb8:	87 15       	cp	r24, r7
     cba:	20 f4       	brcc	.+8      	; 0xcc4 <log_init+0x78>
     cbc:	bc 2e       	mov	r11, r28
     cbe:	78 2e       	mov	r7, r24
     cc0:	dd 24       	eor	r13, r13
     cc2:	d3 94       	inc	r13
     cc4:	21 96       	adiw	r28, 0x01	; 1
     cc6:	09 5f       	subi	r16, 0xF9	; 249
     cc8:	1f 4f       	sbci	r17, 0xFF	; 255
     cca:	c0 31       	cpi	r28, 0x10	; 16
     ccc:	d1 05       	cpc	r29, r1
     cce:	69 f7       	brne	.-38     	; 0xcaa <log_init+0x5e>
     cd0:	dd 20       	and	r13, r13
     cd2:	09 f4       	brne	.+2      	; 0xcd6 <log_init+0x8a>
     cd4:	6a c0       	rjmp	.+212    	; 0xdaa <log_init+0x15e>
     cd6:	b0 92 da 03 	sts	0x03DA, r11	; 0x8003da <last_written>
     cda:	70 92 d9 03 	sts	0x03D9, r7	; 0x8003d9 <last_transaction_written>
     cde:	cb 2d       	mov	r28, r11
     ce0:	d0 e0       	ldi	r29, 0x00	; 0
     ce2:	8e 01       	movw	r16, r28
     ce4:	0f 5f       	subi	r16, 0xFF	; 255
     ce6:	1f 4f       	sbci	r17, 0xFF	; 255
     ce8:	87 2c       	mov	r8, r7
     cea:	2f e0       	ldi	r18, 0x0F	; 15
     cec:	a2 2e       	mov	r10, r18
     cee:	37 e0       	ldi	r19, 0x07	; 7
     cf0:	93 2e       	mov	r9, r19
     cf2:	68 01       	movw	r12, r16
     cf4:	ff e0       	ldi	r31, 0x0F	; 15
     cf6:	cf 22       	and	r12, r31
     cf8:	dd 24       	eor	r13, r13
     cfa:	c6 01       	movw	r24, r12
     cfc:	0e 94 00 06 	call	0xc00	; 0xc00 <log_is_data_valid>
     d00:	89 2b       	or	r24, r25
     d02:	61 f4       	brne	.+24     	; 0xd1c <log_init+0xd0>
     d04:	b0 92 d8 03 	sts	0x03D8, r11	; 0x8003d8 <tail>
     d08:	8e 01       	movw	r16, r28
     d0a:	01 50       	subi	r16, 0x01	; 1
     d0c:	11 09       	sbc	r17, r1
     d0e:	60 97       	sbiw	r28, 0x10	; 16
     d10:	80 e1       	ldi	r24, 0x10	; 16
     d12:	a8 2e       	mov	r10, r24
     d14:	b1 2c       	mov	r11, r1
     d16:	97 e0       	ldi	r25, 0x07	; 7
     d18:	69 2e       	mov	r6, r25
     d1a:	3a c0       	rjmp	.+116    	; 0xd90 <log_init+0x144>
     d1c:	9c 9c       	mul	r9, r12
     d1e:	f0 01       	movw	r30, r0
     d20:	9d 9c       	mul	r9, r13
     d22:	f0 0d       	add	r31, r0
     d24:	11 24       	eor	r1, r1
     d26:	e5 52       	subi	r30, 0x25	; 37
     d28:	fc 4f       	sbci	r31, 0xFC	; 252
     d2a:	40 81       	ld	r20, Z
     d2c:	24 2f       	mov	r18, r20
     d2e:	30 e0       	ldi	r19, 0x00	; 0
     d30:	88 2d       	mov	r24, r8
     d32:	90 e0       	ldi	r25, 0x00	; 0
     d34:	01 96       	adiw	r24, 0x01	; 1
     d36:	8f 71       	andi	r24, 0x1F	; 31
     d38:	99 27       	eor	r25, r25
     d3a:	28 17       	cp	r18, r24
     d3c:	39 07       	cpc	r19, r25
     d3e:	11 f7       	brne	.-60     	; 0xd04 <log_init+0xb8>
     d40:	c0 92 da 03 	sts	0x03DA, r12	; 0x8003da <last_written>
     d44:	40 93 d9 03 	sts	0x03D9, r20	; 0x8003d9 <last_transaction_written>
     d48:	aa 94       	dec	r10
     d4a:	0f 5f       	subi	r16, 0xFF	; 255
     d4c:	1f 4f       	sbci	r17, 0xFF	; 255
     d4e:	aa 20       	and	r10, r10
     d50:	c9 f2       	breq	.-78     	; 0xd04 <log_init+0xb8>
     d52:	84 2e       	mov	r8, r20
     d54:	ce cf       	rjmp	.-100    	; 0xcf2 <log_init+0xa6>
     d56:	f7 01       	movw	r30, r14
     d58:	20 81       	ld	r18, Z
     d5a:	30 e0       	ldi	r19, 0x00	; 0
     d5c:	87 2d       	mov	r24, r7
     d5e:	90 e0       	ldi	r25, 0x00	; 0
     d60:	4f 96       	adiw	r24, 0x1f	; 31
     d62:	8f 71       	andi	r24, 0x1F	; 31
     d64:	99 27       	eor	r25, r25
     d66:	28 17       	cp	r18, r24
     d68:	39 07       	cpc	r19, r25
     d6a:	31 f5       	brne	.+76     	; 0xdb8 <log_init+0x16c>
     d6c:	c0 92 d8 03 	sts	0x03D8, r12	; 0x8003d8 <tail>
     d70:	68 9c       	mul	r6, r8
     d72:	f0 01       	movw	r30, r0
     d74:	69 9c       	mul	r6, r9
     d76:	f0 0d       	add	r31, r0
     d78:	11 24       	eor	r1, r1
     d7a:	e5 52       	subi	r30, 0x25	; 37
     d7c:	fc 4f       	sbci	r31, 0xFC	; 252
     d7e:	70 80       	ld	r7, Z
     d80:	01 50       	subi	r16, 0x01	; 1
     d82:	11 09       	sbc	r17, r1
     d84:	f7 e0       	ldi	r31, 0x07	; 7
     d86:	ef 0e       	add	r14, r31
     d88:	f1 1c       	adc	r15, r1
     d8a:	0c 17       	cp	r16, r28
     d8c:	1d 07       	cpc	r17, r29
     d8e:	a1 f0       	breq	.+40     	; 0xdb8 <log_init+0x16c>
     d90:	c8 01       	movw	r24, r16
     d92:	b5 01       	movw	r22, r10
     d94:	0e 94 94 14 	call	0x2928	; 0x2928 <__divmodhi4>
     d98:	6c 01       	movw	r12, r24
     d9a:	4c 01       	movw	r8, r24
     d9c:	99 24       	eor	r9, r9
     d9e:	c4 01       	movw	r24, r8
     da0:	0e 94 00 06 	call	0xc00	; 0xc00 <log_is_data_valid>
     da4:	89 2b       	or	r24, r25
     da6:	b9 f6       	brne	.-82     	; 0xd56 <log_init+0x10a>
     da8:	07 c0       	rjmp	.+14     	; 0xdb8 <log_init+0x16c>
     daa:	8f e0       	ldi	r24, 0x0F	; 15
     dac:	80 93 da 03 	sts	0x03DA, r24	; 0x8003da <last_written>
     db0:	10 92 d9 03 	sts	0x03D9, r1	; 0x8003d9 <last_transaction_written>
     db4:	10 92 d8 03 	sts	0x03D8, r1	; 0x8003d8 <tail>
     db8:	df 91       	pop	r29
     dba:	cf 91       	pop	r28
     dbc:	1f 91       	pop	r17
     dbe:	0f 91       	pop	r16
     dc0:	ff 90       	pop	r15
     dc2:	ef 90       	pop	r14
     dc4:	df 90       	pop	r13
     dc6:	cf 90       	pop	r12
     dc8:	bf 90       	pop	r11
     dca:	af 90       	pop	r10
     dcc:	9f 90       	pop	r9
     dce:	8f 90       	pop	r8
     dd0:	7f 90       	pop	r7
     dd2:	6f 90       	pop	r6
     dd4:	08 95       	ret

00000dd6 <log_update>:
     dd6:	ef 92       	push	r14
     dd8:	ff 92       	push	r15
     dda:	1f 93       	push	r17
     ddc:	cf 93       	push	r28
     dde:	df 93       	push	r29
     de0:	0e 94 7e 05 	call	0xafc	; 0xafc <eeprom_isbusy>
     de4:	89 2b       	or	r24, r25
     de6:	39 f5       	brne	.+78     	; 0xe36 <log_update+0x60>
     de8:	eb e4       	ldi	r30, 0x4B	; 75
     dea:	f4 e0       	ldi	r31, 0x04	; 4
     dec:	c0 e0       	ldi	r28, 0x00	; 0
     dee:	d0 e0       	ldi	r29, 0x00	; 0
     df0:	81 91       	ld	r24, Z+
     df2:	88 23       	and	r24, r24
     df4:	e1 f0       	breq	.+56     	; 0xe2e <log_update+0x58>
     df6:	17 e0       	ldi	r17, 0x07	; 7
     df8:	1c 9f       	mul	r17, r28
     dfa:	c0 01       	movw	r24, r0
     dfc:	1d 9f       	mul	r17, r29
     dfe:	90 0d       	add	r25, r0
     e00:	11 24       	eor	r1, r1
     e02:	9c 01       	movw	r18, r24
     e04:	25 52       	subi	r18, 0x25	; 37
     e06:	3c 4f       	sbci	r19, 0xFC	; 252
     e08:	79 01       	movw	r14, r18
     e0a:	67 e0       	ldi	r22, 0x07	; 7
     e0c:	70 e0       	ldi	r23, 0x00	; 0
     e0e:	c9 01       	movw	r24, r18
     e10:	0e 94 00 11 	call	0x2200	; 0x2200 <update_checksum>
     e14:	c1 9f       	mul	r28, r17
     e16:	c0 01       	movw	r24, r0
     e18:	11 24       	eor	r1, r1
     e1a:	47 e0       	ldi	r20, 0x07	; 7
     e1c:	b7 01       	movw	r22, r14
     e1e:	80 58       	subi	r24, 0x80	; 128
     e20:	9f 4f       	sbci	r25, 0xFF	; 255
     e22:	0e 94 35 05 	call	0xa6a	; 0xa6a <eeprom_writebuf>
     e26:	c5 5b       	subi	r28, 0xB5	; 181
     e28:	db 4f       	sbci	r29, 0xFB	; 251
     e2a:	18 82       	st	Y, r1
     e2c:	04 c0       	rjmp	.+8      	; 0xe36 <log_update+0x60>
     e2e:	21 96       	adiw	r28, 0x01	; 1
     e30:	c0 31       	cpi	r28, 0x10	; 16
     e32:	d1 05       	cpc	r29, r1
     e34:	e9 f6       	brne	.-70     	; 0xdf0 <log_update+0x1a>
     e36:	df 91       	pop	r29
     e38:	cf 91       	pop	r28
     e3a:	1f 91       	pop	r17
     e3c:	ff 90       	pop	r15
     e3e:	ef 90       	pop	r14
     e40:	08 95       	ret

00000e42 <log_update_noisr>:
     e42:	ef 92       	push	r14
     e44:	ff 92       	push	r15
     e46:	1f 93       	push	r17
     e48:	cf 93       	push	r28
     e4a:	df 93       	push	r29
     e4c:	eb e4       	ldi	r30, 0x4B	; 75
     e4e:	f4 e0       	ldi	r31, 0x04	; 4
     e50:	c0 e0       	ldi	r28, 0x00	; 0
     e52:	d0 e0       	ldi	r29, 0x00	; 0
     e54:	81 91       	ld	r24, Z+
     e56:	88 23       	and	r24, r24
     e58:	e1 f0       	breq	.+56     	; 0xe92 <log_update_noisr+0x50>
     e5a:	17 e0       	ldi	r17, 0x07	; 7
     e5c:	1c 9f       	mul	r17, r28
     e5e:	c0 01       	movw	r24, r0
     e60:	1d 9f       	mul	r17, r29
     e62:	90 0d       	add	r25, r0
     e64:	11 24       	eor	r1, r1
     e66:	9c 01       	movw	r18, r24
     e68:	25 52       	subi	r18, 0x25	; 37
     e6a:	3c 4f       	sbci	r19, 0xFC	; 252
     e6c:	79 01       	movw	r14, r18
     e6e:	67 e0       	ldi	r22, 0x07	; 7
     e70:	70 e0       	ldi	r23, 0x00	; 0
     e72:	c9 01       	movw	r24, r18
     e74:	0e 94 00 11 	call	0x2200	; 0x2200 <update_checksum>
     e78:	c1 9f       	mul	r28, r17
     e7a:	c0 01       	movw	r24, r0
     e7c:	11 24       	eor	r1, r1
     e7e:	47 e0       	ldi	r20, 0x07	; 7
     e80:	b7 01       	movw	r22, r14
     e82:	80 58       	subi	r24, 0x80	; 128
     e84:	9f 4f       	sbci	r25, 0xFF	; 255
     e86:	0e 94 52 05 	call	0xaa4	; 0xaa4 <eeprom_writebuf_noisr>
     e8a:	c5 5b       	subi	r28, 0xB5	; 181
     e8c:	db 4f       	sbci	r29, 0xFB	; 251
     e8e:	18 82       	st	Y, r1
     e90:	04 c0       	rjmp	.+8      	; 0xe9a <log_update_noisr+0x58>
     e92:	21 96       	adiw	r28, 0x01	; 1
     e94:	c0 31       	cpi	r28, 0x10	; 16
     e96:	d1 05       	cpc	r29, r1
     e98:	e9 f6       	brne	.-70     	; 0xe54 <log_update_noisr+0x12>
     e9a:	df 91       	pop	r29
     e9c:	cf 91       	pop	r28
     e9e:	1f 91       	pop	r17
     ea0:	ff 90       	pop	r15
     ea2:	ef 90       	pop	r14
     ea4:	08 95       	ret

00000ea6 <log_add_record>:
     ea6:	ef 92       	push	r14
     ea8:	ff 92       	push	r15
     eaa:	0f 93       	push	r16
     eac:	1f 93       	push	r17
     eae:	cf 93       	push	r28
     eb0:	df 93       	push	r29
     eb2:	e8 2e       	mov	r14, r24
     eb4:	c0 91 da 03 	lds	r28, 0x03DA	; 0x8003da <last_written>
     eb8:	d0 e0       	ldi	r29, 0x00	; 0
     eba:	21 96       	adiw	r28, 0x01	; 1
     ebc:	cf 70       	andi	r28, 0x0F	; 15
     ebe:	dd 27       	eor	r29, r29
     ec0:	80 91 d8 03 	lds	r24, 0x03D8	; 0x8003d8 <tail>
     ec4:	90 e0       	ldi	r25, 0x00	; 0
     ec6:	0e 94 00 06 	call	0xc00	; 0xc00 <log_is_data_valid>
     eca:	f8 2e       	mov	r15, r24
     ecc:	80 91 d9 03 	lds	r24, 0x03D9	; 0x8003d9 <last_transaction_written>
     ed0:	8f 5f       	subi	r24, 0xFF	; 255
     ed2:	81 32       	cpi	r24, 0x21	; 33
     ed4:	18 f4       	brcc	.+6      	; 0xedc <log_add_record+0x36>
     ed6:	80 93 d9 03 	sts	0x03D9, r24	; 0x8003d9 <last_transaction_written>
     eda:	02 c0       	rjmp	.+4      	; 0xee0 <log_add_record+0x3a>
     edc:	10 92 d9 03 	sts	0x03D9, r1	; 0x8003d9 <last_transaction_written>
     ee0:	87 e0       	ldi	r24, 0x07	; 7
     ee2:	8c 9f       	mul	r24, r28
     ee4:	80 01       	movw	r16, r0
     ee6:	8d 9f       	mul	r24, r29
     ee8:	10 0d       	add	r17, r0
     eea:	11 24       	eor	r1, r1
     eec:	05 52       	subi	r16, 0x25	; 37
     eee:	1c 4f       	sbci	r17, 0xFC	; 252
     ef0:	80 91 d9 03 	lds	r24, 0x03D9	; 0x8003d9 <last_transaction_written>
     ef4:	f8 01       	movw	r30, r16
     ef6:	80 83       	st	Z, r24
     ef8:	0e 94 20 08 	call	0x1040	; 0x1040 <rtc_get_date>
     efc:	f8 01       	movw	r30, r16
     efe:	61 83       	std	Z+1, r22	; 0x01
     f00:	72 83       	std	Z+2, r23	; 0x02
     f02:	83 83       	std	Z+3, r24	; 0x03
     f04:	94 83       	std	Z+4, r25	; 0x04
     f06:	e5 82       	std	Z+5, r14	; 0x05
     f08:	c0 93 da 03 	sts	0x03DA, r28	; 0x8003da <last_written>
     f0c:	67 e0       	ldi	r22, 0x07	; 7
     f0e:	70 e0       	ldi	r23, 0x00	; 0
     f10:	c8 01       	movw	r24, r16
     f12:	0e 94 00 11 	call	0x2200	; 0x2200 <update_checksum>
     f16:	c5 5b       	subi	r28, 0xB5	; 181
     f18:	db 4f       	sbci	r29, 0xFB	; 251
     f1a:	81 e0       	ldi	r24, 0x01	; 1
     f1c:	88 83       	st	Y, r24
     f1e:	80 91 da 03 	lds	r24, 0x03DA	; 0x8003da <last_written>
     f22:	90 91 d8 03 	lds	r25, 0x03D8	; 0x8003d8 <tail>
     f26:	89 13       	cpse	r24, r25
     f28:	08 c0       	rjmp	.+16     	; 0xf3a <log_add_record+0x94>
     f2a:	ff 20       	and	r15, r15
     f2c:	31 f0       	breq	.+12     	; 0xf3a <log_add_record+0x94>
     f2e:	90 e0       	ldi	r25, 0x00	; 0
     f30:	01 96       	adiw	r24, 0x01	; 1
     f32:	8f 70       	andi	r24, 0x0F	; 15
     f34:	99 27       	eor	r25, r25
     f36:	80 93 d8 03 	sts	0x03D8, r24	; 0x8003d8 <tail>
     f3a:	df 91       	pop	r29
     f3c:	cf 91       	pop	r28
     f3e:	1f 91       	pop	r17
     f40:	0f 91       	pop	r16
     f42:	ff 90       	pop	r15
     f44:	ef 90       	pop	r14
     f46:	08 95       	ret

00000f48 <log_clear>:
     f48:	eb ed       	ldi	r30, 0xDB	; 219
     f4a:	f3 e0       	ldi	r31, 0x03	; 3
     f4c:	ab e4       	ldi	r26, 0x4B	; 75
     f4e:	b4 e0       	ldi	r27, 0x04	; 4
     f50:	8f ef       	ldi	r24, 0xFF	; 255
     f52:	4f ef       	ldi	r20, 0xFF	; 255
     f54:	5f ef       	ldi	r21, 0xFF	; 255
     f56:	ba 01       	movw	r22, r20
     f58:	91 e0       	ldi	r25, 0x01	; 1
     f5a:	80 83       	st	Z, r24
     f5c:	85 83       	std	Z+5, r24	; 0x05
     f5e:	41 83       	std	Z+1, r20	; 0x01
     f60:	52 83       	std	Z+2, r21	; 0x02
     f62:	63 83       	std	Z+3, r22	; 0x03
     f64:	74 83       	std	Z+4, r23	; 0x04
     f66:	9d 93       	st	X+, r25
     f68:	37 96       	adiw	r30, 0x07	; 7
     f6a:	24 e0       	ldi	r18, 0x04	; 4
     f6c:	eb 34       	cpi	r30, 0x4B	; 75
     f6e:	f2 07       	cpc	r31, r18
     f70:	a1 f7       	brne	.-24     	; 0xf5a <log_clear+0x12>
     f72:	8f e0       	ldi	r24, 0x0F	; 15
     f74:	80 93 da 03 	sts	0x03DA, r24	; 0x8003da <last_written>
     f78:	10 92 d8 03 	sts	0x03D8, r1	; 0x8003d8 <tail>
     f7c:	10 92 d9 03 	sts	0x03D9, r1	; 0x8003d9 <last_transaction_written>
     f80:	08 95       	ret

00000f82 <log_get_num_entries>:
     f82:	0f 93       	push	r16
     f84:	1f 93       	push	r17
     f86:	cf 93       	push	r28
     f88:	df 93       	push	r29
     f8a:	00 91 d8 03 	lds	r16, 0x03D8	; 0x8003d8 <tail>
     f8e:	c0 2f       	mov	r28, r16
     f90:	10 e0       	ldi	r17, 0x00	; 0
     f92:	d0 e0       	ldi	r29, 0x00	; 0
     f94:	ce 01       	movw	r24, r28
     f96:	0e 94 00 06 	call	0xc00	; 0xc00 <log_is_data_valid>
     f9a:	89 2b       	or	r24, r25
     f9c:	29 f0       	breq	.+10     	; 0xfa8 <log_get_num_entries+0x26>
     f9e:	21 96       	adiw	r28, 0x01	; 1
     fa0:	cf 70       	andi	r28, 0x0F	; 15
     fa2:	1f 5f       	subi	r17, 0xFF	; 255
     fa4:	0c 13       	cpse	r16, r28
     fa6:	f5 cf       	rjmp	.-22     	; 0xf92 <log_get_num_entries+0x10>
     fa8:	81 2f       	mov	r24, r17
     faa:	df 91       	pop	r29
     fac:	cf 91       	pop	r28
     fae:	1f 91       	pop	r17
     fb0:	0f 91       	pop	r16
     fb2:	08 95       	ret

00000fb4 <log_get_record>:
     fb4:	af 92       	push	r10
     fb6:	bf 92       	push	r11
     fb8:	cf 92       	push	r12
     fba:	df 92       	push	r13
     fbc:	ef 92       	push	r14
     fbe:	ff 92       	push	r15
     fc0:	0f 93       	push	r16
     fc2:	1f 93       	push	r17
     fc4:	cf 93       	push	r28
     fc6:	df 93       	push	r29
     fc8:	6b 01       	movw	r12, r22
     fca:	7c 01       	movw	r14, r24
     fcc:	8a 01       	movw	r16, r20
     fce:	59 01       	movw	r10, r18
     fd0:	0e 94 c1 07 	call	0xf82	; 0xf82 <log_get_num_entries>
     fd4:	90 e0       	ldi	r25, 0x00	; 0
     fd6:	a0 e0       	ldi	r26, 0x00	; 0
     fd8:	b0 e0       	ldi	r27, 0x00	; 0
     fda:	c8 16       	cp	r12, r24
     fdc:	d9 06       	cpc	r13, r25
     fde:	ea 06       	cpc	r14, r26
     fe0:	fb 06       	cpc	r15, r27
     fe2:	f8 f4       	brcc	.+62     	; 0x1022 <log_get_record+0x6e>
     fe4:	80 91 d8 03 	lds	r24, 0x03D8	; 0x8003d8 <tail>
     fe8:	90 e0       	ldi	r25, 0x00	; 0
     fea:	c8 0e       	add	r12, r24
     fec:	d9 1e       	adc	r13, r25
     fee:	8f e0       	ldi	r24, 0x0F	; 15
     ff0:	c8 22       	and	r12, r24
     ff2:	dd 24       	eor	r13, r13
     ff4:	87 e0       	ldi	r24, 0x07	; 7
     ff6:	8c 9d       	mul	r24, r12
     ff8:	f0 01       	movw	r30, r0
     ffa:	8d 9d       	mul	r24, r13
     ffc:	f0 0d       	add	r31, r0
     ffe:	11 24       	eor	r1, r1
    1000:	e5 52       	subi	r30, 0x25	; 37
    1002:	fc 4f       	sbci	r31, 0xFC	; 252
    1004:	81 81       	ldd	r24, Z+1	; 0x01
    1006:	92 81       	ldd	r25, Z+2	; 0x02
    1008:	a3 81       	ldd	r26, Z+3	; 0x03
    100a:	b4 81       	ldd	r27, Z+4	; 0x04
    100c:	e8 01       	movw	r28, r16
    100e:	88 83       	st	Y, r24
    1010:	99 83       	std	Y+1, r25	; 0x01
    1012:	aa 83       	std	Y+2, r26	; 0x02
    1014:	bb 83       	std	Y+3, r27	; 0x03
    1016:	85 81       	ldd	r24, Z+5	; 0x05
    1018:	f5 01       	movw	r30, r10
    101a:	80 83       	st	Z, r24
    101c:	81 e0       	ldi	r24, 0x01	; 1
    101e:	90 e0       	ldi	r25, 0x00	; 0
    1020:	02 c0       	rjmp	.+4      	; 0x1026 <log_get_record+0x72>
    1022:	80 e0       	ldi	r24, 0x00	; 0
    1024:	90 e0       	ldi	r25, 0x00	; 0
    1026:	df 91       	pop	r29
    1028:	cf 91       	pop	r28
    102a:	1f 91       	pop	r17
    102c:	0f 91       	pop	r16
    102e:	ff 90       	pop	r15
    1030:	ef 90       	pop	r14
    1032:	df 90       	pop	r13
    1034:	cf 90       	pop	r12
    1036:	bf 90       	pop	r11
    1038:	af 90       	pop	r10
    103a:	08 95       	ret

0000103c <rtc_init>:
    103c:	0c 94 08 0c 	jmp	0x1810	; 0x1810 <timer1_init>

00001040 <rtc_get_date>:
    1040:	0c 94 18 0c 	jmp	0x1830	; 0x1830 <timer1_get>

00001044 <rtc_set_date>:
    1044:	60 93 fd 04 	sts	0x04FD, r22	; 0x8004fd <rtc_base>
    1048:	70 93 fe 04 	sts	0x04FE, r23	; 0x8004fe <rtc_base+0x1>
    104c:	80 93 ff 04 	sts	0x04FF, r24	; 0x8004ff <rtc_base+0x2>
    1050:	90 93 00 05 	sts	0x0500, r25	; 0x800500 <rtc_base+0x3>
    1054:	0c 94 24 0c 	jmp	0x1848	; 0x1848 <timer1_clear>

00001058 <is_leapyear>:
    1058:	9c 01       	movw	r18, r24
    105a:	60 e9       	ldi	r22, 0x90	; 144
    105c:	71 e0       	ldi	r23, 0x01	; 1
    105e:	0e 94 80 14 	call	0x2900	; 0x2900 <__udivmodhi4>
    1062:	89 2b       	or	r24, r25
    1064:	79 f0       	breq	.+30     	; 0x1084 <is_leapyear+0x2c>
    1066:	c9 01       	movw	r24, r18
    1068:	83 70       	andi	r24, 0x03	; 3
    106a:	99 27       	eor	r25, r25
    106c:	89 2b       	or	r24, r25
    106e:	61 f4       	brne	.+24     	; 0x1088 <is_leapyear+0x30>
    1070:	c9 01       	movw	r24, r18
    1072:	64 e6       	ldi	r22, 0x64	; 100
    1074:	70 e0       	ldi	r23, 0x00	; 0
    1076:	0e 94 80 14 	call	0x2900	; 0x2900 <__udivmodhi4>
    107a:	9c 01       	movw	r18, r24
    107c:	81 e0       	ldi	r24, 0x01	; 1
    107e:	23 2b       	or	r18, r19
    1080:	21 f4       	brne	.+8      	; 0x108a <is_leapyear+0x32>
    1082:	02 c0       	rjmp	.+4      	; 0x1088 <is_leapyear+0x30>
    1084:	81 e0       	ldi	r24, 0x01	; 1
    1086:	08 95       	ret
    1088:	80 e0       	ldi	r24, 0x00	; 0
    108a:	08 95       	ret

0000108c <rtc_set_by_datestr>:
    108c:	2f 92       	push	r2
    108e:	3f 92       	push	r3
    1090:	4f 92       	push	r4
    1092:	5f 92       	push	r5
    1094:	6f 92       	push	r6
    1096:	7f 92       	push	r7
    1098:	8f 92       	push	r8
    109a:	9f 92       	push	r9
    109c:	af 92       	push	r10
    109e:	bf 92       	push	r11
    10a0:	cf 92       	push	r12
    10a2:	df 92       	push	r13
    10a4:	ef 92       	push	r14
    10a6:	ff 92       	push	r15
    10a8:	0f 93       	push	r16
    10aa:	1f 93       	push	r17
    10ac:	cf 93       	push	r28
    10ae:	df 93       	push	r29
    10b0:	cd b7       	in	r28, 0x3d	; 61
    10b2:	de b7       	in	r29, 0x3e	; 62
    10b4:	67 97       	sbiw	r28, 0x17	; 23
    10b6:	0f b6       	in	r0, 0x3f	; 63
    10b8:	f8 94       	cli
    10ba:	de bf       	out	0x3e, r29	; 62
    10bc:	0f be       	out	0x3f, r0	; 63
    10be:	cd bf       	out	0x3d, r28	; 61
    10c0:	2c e0       	ldi	r18, 0x0C	; 12
    10c2:	e8 e9       	ldi	r30, 0x98	; 152
    10c4:	f1 e0       	ldi	r31, 0x01	; 1
    10c6:	ae 01       	movw	r20, r28
    10c8:	4f 5f       	subi	r20, 0xFF	; 255
    10ca:	5f 4f       	sbci	r21, 0xFF	; 255
    10cc:	1a 01       	movw	r2, r20
    10ce:	da 01       	movw	r26, r20
    10d0:	01 90       	ld	r0, Z+
    10d2:	0d 92       	st	X+, r0
    10d4:	2a 95       	dec	r18
    10d6:	e1 f7       	brne	.-8      	; 0x10d0 <rtc_set_by_datestr+0x44>
    10d8:	dc 01       	movw	r26, r24
    10da:	2c 91       	ld	r18, X
    10dc:	22 0f       	add	r18, r18
    10de:	20 56       	subi	r18, 0x60	; 96
    10e0:	32 2f       	mov	r19, r18
    10e2:	33 0f       	add	r19, r19
    10e4:	33 0f       	add	r19, r19
    10e6:	23 0f       	add	r18, r19
    10e8:	11 96       	adiw	r26, 0x01	; 1
    10ea:	3c 91       	ld	r19, X
    10ec:	11 97       	sbiw	r26, 0x01	; 1
    10ee:	31 53       	subi	r19, 0x31	; 49
    10f0:	23 0f       	add	r18, r19
    10f2:	2d 87       	std	Y+13, r18	; 0x0d
    10f4:	13 96       	adiw	r26, 0x03	; 3
    10f6:	2c 91       	ld	r18, X
    10f8:	13 97       	sbiw	r26, 0x03	; 3
    10fa:	02 2e       	mov	r0, r18
    10fc:	00 0c       	add	r0, r0
    10fe:	33 0b       	sbc	r19, r19
    1100:	20 53       	subi	r18, 0x30	; 48
    1102:	31 09       	sbc	r19, r1
    1104:	6a e0       	ldi	r22, 0x0A	; 10
    1106:	62 9f       	mul	r22, r18
    1108:	a0 01       	movw	r20, r0
    110a:	63 9f       	mul	r22, r19
    110c:	50 0d       	add	r21, r0
    110e:	11 24       	eor	r1, r1
    1110:	14 96       	adiw	r26, 0x04	; 4
    1112:	cc 90       	ld	r12, X
    1114:	0c 2c       	mov	r0, r12
    1116:	00 0c       	add	r0, r0
    1118:	dd 08       	sbc	r13, r13
    111a:	b0 e3       	ldi	r27, 0x30	; 48
    111c:	cb 1a       	sub	r12, r27
    111e:	d1 08       	sbc	r13, r1
    1120:	c4 0e       	add	r12, r20
    1122:	d5 1e       	adc	r13, r21
    1124:	86 01       	movw	r16, r12
    1126:	01 50       	subi	r16, 0x01	; 1
    1128:	11 09       	sbc	r17, r1
    112a:	fc 01       	movw	r30, r24
    112c:	26 81       	ldd	r18, Z+6	; 0x06
    112e:	02 2e       	mov	r0, r18
    1130:	00 0c       	add	r0, r0
    1132:	33 0b       	sbc	r19, r19
    1134:	20 53       	subi	r18, 0x30	; 48
    1136:	31 09       	sbc	r19, r1
    1138:	e8 ee       	ldi	r30, 0xE8	; 232
    113a:	f3 e0       	ldi	r31, 0x03	; 3
    113c:	2e 9f       	mul	r18, r30
    113e:	a0 01       	movw	r20, r0
    1140:	2f 9f       	mul	r18, r31
    1142:	50 0d       	add	r21, r0
    1144:	3e 9f       	mul	r19, r30
    1146:	50 0d       	add	r21, r0
    1148:	11 24       	eor	r1, r1
    114a:	dc 01       	movw	r26, r24
    114c:	17 96       	adiw	r26, 0x07	; 7
    114e:	2c 91       	ld	r18, X
    1150:	17 97       	sbiw	r26, 0x07	; 7
    1152:	02 2e       	mov	r0, r18
    1154:	00 0c       	add	r0, r0
    1156:	33 0b       	sbc	r19, r19
    1158:	20 53       	subi	r18, 0x30	; 48
    115a:	31 09       	sbc	r19, r1
    115c:	74 e6       	ldi	r23, 0x64	; 100
    115e:	72 9f       	mul	r23, r18
    1160:	70 01       	movw	r14, r0
    1162:	73 9f       	mul	r23, r19
    1164:	f0 0c       	add	r15, r0
    1166:	11 24       	eor	r1, r1
    1168:	e4 0e       	add	r14, r20
    116a:	f5 1e       	adc	r15, r21
    116c:	18 96       	adiw	r26, 0x08	; 8
    116e:	4c 91       	ld	r20, X
    1170:	18 97       	sbiw	r26, 0x08	; 8
    1172:	04 2e       	mov	r0, r20
    1174:	00 0c       	add	r0, r0
    1176:	55 0b       	sbc	r21, r21
    1178:	40 53       	subi	r20, 0x30	; 48
    117a:	51 09       	sbc	r21, r1
    117c:	64 9f       	mul	r22, r20
    117e:	90 01       	movw	r18, r0
    1180:	65 9f       	mul	r22, r21
    1182:	30 0d       	add	r19, r0
    1184:	11 24       	eor	r1, r1
    1186:	e2 0e       	add	r14, r18
    1188:	f3 1e       	adc	r15, r19
    118a:	19 96       	adiw	r26, 0x09	; 9
    118c:	2c 91       	ld	r18, X
    118e:	19 97       	sbiw	r26, 0x09	; 9
    1190:	f7 01       	movw	r30, r14
    1192:	e2 0f       	add	r30, r18
    1194:	f1 1d       	adc	r31, r1
    1196:	27 fd       	sbrc	r18, 7
    1198:	fa 95       	dec	r31
    119a:	af 01       	movw	r20, r30
    119c:	58 50       	subi	r21, 0x08	; 8
    119e:	7a 01       	movw	r14, r20
    11a0:	1b 96       	adiw	r26, 0x0b	; 11
    11a2:	2c 91       	ld	r18, X
    11a4:	1b 97       	sbiw	r26, 0x0b	; 11
    11a6:	22 0f       	add	r18, r18
    11a8:	20 56       	subi	r18, 0x60	; 96
    11aa:	32 2f       	mov	r19, r18
    11ac:	33 0f       	add	r19, r19
    11ae:	33 0f       	add	r19, r19
    11b0:	23 0f       	add	r18, r19
    11b2:	1c 96       	adiw	r26, 0x0c	; 12
    11b4:	3c 91       	ld	r19, X
    11b6:	1c 97       	sbiw	r26, 0x0c	; 12
    11b8:	30 53       	subi	r19, 0x30	; 48
    11ba:	23 0f       	add	r18, r19
    11bc:	29 8b       	std	Y+17, r18	; 0x11
    11be:	1e 96       	adiw	r26, 0x0e	; 14
    11c0:	2c 91       	ld	r18, X
    11c2:	1e 97       	sbiw	r26, 0x0e	; 14
    11c4:	22 0f       	add	r18, r18
    11c6:	20 56       	subi	r18, 0x60	; 96
    11c8:	32 2f       	mov	r19, r18
    11ca:	33 0f       	add	r19, r19
    11cc:	33 0f       	add	r19, r19
    11ce:	23 0f       	add	r18, r19
    11d0:	1f 96       	adiw	r26, 0x0f	; 15
    11d2:	3c 91       	ld	r19, X
    11d4:	1f 97       	sbiw	r26, 0x0f	; 15
    11d6:	30 53       	subi	r19, 0x30	; 48
    11d8:	23 0f       	add	r18, r19
    11da:	2a 8b       	std	Y+18, r18	; 0x12
    11dc:	51 96       	adiw	r26, 0x11	; 17
    11de:	2c 91       	ld	r18, X
    11e0:	51 97       	sbiw	r26, 0x11	; 17
    11e2:	22 0f       	add	r18, r18
    11e4:	20 56       	subi	r18, 0x60	; 96
    11e6:	32 2f       	mov	r19, r18
    11e8:	33 0f       	add	r19, r19
    11ea:	33 0f       	add	r19, r19
    11ec:	23 0f       	add	r18, r19
    11ee:	52 96       	adiw	r26, 0x12	; 18
    11f0:	8c 91       	ld	r24, X
    11f2:	80 53       	subi	r24, 0x30	; 48
    11f4:	28 0f       	add	r18, r24
    11f6:	2b 8b       	std	Y+19, r18	; 0x13
    11f8:	ca 01       	movw	r24, r20
    11fa:	0e 94 2c 08 	call	0x1058	; 0x1058 <is_leapyear>
    11fe:	88 23       	and	r24, r24
    1200:	21 f0       	breq	.+8      	; 0x120a <rtc_set_by_datestr+0x17e>
    1202:	5d 85       	ldd	r21, Y+13	; 0x0d
    1204:	52 30       	cpi	r21, 0x02	; 2
    1206:	08 f0       	brcs	.+2      	; 0x120a <rtc_set_by_datestr+0x17e>
    1208:	86 01       	movw	r16, r12
    120a:	c7 01       	movw	r24, r14
    120c:	60 e9       	ldi	r22, 0x90	; 144
    120e:	71 e0       	ldi	r23, 0x01	; 1
    1210:	0e 94 80 14 	call	0x2900	; 0x2900 <__udivmodhi4>
    1214:	fc 01       	movw	r30, r24
    1216:	db 01       	movw	r26, r22
    1218:	20 e8       	ldi	r18, 0x80	; 128
    121a:	39 e5       	ldi	r19, 0x59	; 89
    121c:	40 e6       	ldi	r20, 0x60	; 96
    121e:	50 ef       	ldi	r21, 0xF0	; 240
    1220:	0e 94 fe 14 	call	0x29fc	; 0x29fc <__muluhisi3>
    1224:	2b 01       	movw	r4, r22
    1226:	3c 01       	movw	r6, r24
    1228:	cf 01       	movw	r24, r30
    122a:	64 e6       	ldi	r22, 0x64	; 100
    122c:	70 e0       	ldi	r23, 0x00	; 0
    122e:	0e 94 80 14 	call	0x2900	; 0x2900 <__udivmodhi4>
    1232:	fc 01       	movw	r30, r24
    1234:	db 01       	movw	r26, r22
    1236:	20 e0       	ldi	r18, 0x00	; 0
    1238:	32 ec       	ldi	r19, 0xC2	; 194
    123a:	47 e1       	ldi	r20, 0x17	; 23
    123c:	5c eb       	ldi	r21, 0xBC	; 188
    123e:	0e 94 fe 14 	call	0x29fc	; 0x29fc <__muluhisi3>
    1242:	4b 01       	movw	r8, r22
    1244:	5c 01       	movw	r10, r24
    1246:	df 01       	movw	r26, r30
    1248:	b6 95       	lsr	r27
    124a:	a7 95       	ror	r26
    124c:	b6 95       	lsr	r27
    124e:	a7 95       	ror	r26
    1250:	20 e8       	ldi	r18, 0x80	; 128
    1252:	3f e1       	ldi	r19, 0x1F	; 31
    1254:	46 e8       	ldi	r20, 0x86	; 134
    1256:	57 e0       	ldi	r21, 0x07	; 7
    1258:	0e 94 fe 14 	call	0x29fc	; 0x29fc <__muluhisi3>
    125c:	6b 01       	movw	r12, r22
    125e:	7c 01       	movw	r14, r24
    1260:	df 01       	movw	r26, r30
    1262:	a3 70       	andi	r26, 0x03	; 3
    1264:	bb 27       	eor	r27, r27
    1266:	20 e8       	ldi	r18, 0x80	; 128
    1268:	33 e3       	ldi	r19, 0x33	; 51
    126a:	41 ee       	ldi	r20, 0xE1	; 225
    126c:	51 e0       	ldi	r21, 0x01	; 1
    126e:	0e 94 fe 14 	call	0x29fc	; 0x29fc <__muluhisi3>
    1272:	6c 8b       	std	Y+20, r22	; 0x14
    1274:	7d 8b       	std	Y+21, r23	; 0x15
    1276:	8e 8b       	std	Y+22, r24	; 0x16
    1278:	9f 8b       	std	Y+23, r25	; 0x17
    127a:	f1 01       	movw	r30, r2
    127c:	8e 2f       	mov	r24, r30
    127e:	82 19       	sub	r24, r2
    1280:	9d 85       	ldd	r25, Y+13	; 0x0d
    1282:	89 17       	cp	r24, r25
    1284:	20 f4       	brcc	.+8      	; 0x128e <rtc_set_by_datestr+0x202>
    1286:	81 91       	ld	r24, Z+
    1288:	08 0f       	add	r16, r24
    128a:	11 1d       	adc	r17, r1
    128c:	f7 cf       	rjmp	.-18     	; 0x127c <rtc_set_by_datestr+0x1f0>
    128e:	a9 89       	ldd	r26, Y+17	; 0x11
    1290:	2a 2f       	mov	r18, r26
    1292:	30 e0       	ldi	r19, 0x00	; 0
    1294:	a0 e1       	ldi	r26, 0x10	; 16
    1296:	be e0       	ldi	r27, 0x0E	; 14
    1298:	0e 94 ef 14 	call	0x29de	; 0x29de <__umulhisi3>
    129c:	6d 87       	std	Y+13, r22	; 0x0d
    129e:	7e 87       	std	Y+14, r23	; 0x0e
    12a0:	8f 87       	std	Y+15, r24	; 0x0f
    12a2:	98 8b       	std	Y+16, r25	; 0x10
    12a4:	ba 89       	ldd	r27, Y+18	; 0x12
    12a6:	2b 2f       	mov	r18, r27
    12a8:	30 e0       	ldi	r19, 0x00	; 0
    12aa:	ac e3       	ldi	r26, 0x3C	; 60
    12ac:	b0 e0       	ldi	r27, 0x00	; 0
    12ae:	0e 94 ef 14 	call	0x29de	; 0x29de <__umulhisi3>
    12b2:	2d 85       	ldd	r18, Y+13	; 0x0d
    12b4:	3e 85       	ldd	r19, Y+14	; 0x0e
    12b6:	4f 85       	ldd	r20, Y+15	; 0x0f
    12b8:	58 89       	ldd	r21, Y+16	; 0x10
    12ba:	26 0f       	add	r18, r22
    12bc:	37 1f       	adc	r19, r23
    12be:	48 1f       	adc	r20, r24
    12c0:	59 1f       	adc	r21, r25
    12c2:	da 01       	movw	r26, r20
    12c4:	c9 01       	movw	r24, r18
    12c6:	3b 89       	ldd	r19, Y+19	; 0x13
    12c8:	83 0f       	add	r24, r19
    12ca:	91 1d       	adc	r25, r1
    12cc:	a1 1d       	adc	r26, r1
    12ce:	b1 1d       	adc	r27, r1
    12d0:	48 0e       	add	r4, r24
    12d2:	59 1e       	adc	r5, r25
    12d4:	6a 1e       	adc	r6, r26
    12d6:	7b 1e       	adc	r7, r27
    12d8:	84 0c       	add	r8, r4
    12da:	95 1c       	adc	r9, r5
    12dc:	a6 1c       	adc	r10, r6
    12de:	b7 1c       	adc	r11, r7
    12e0:	c8 0c       	add	r12, r8
    12e2:	d9 1c       	adc	r13, r9
    12e4:	ea 1c       	adc	r14, r10
    12e6:	fb 1c       	adc	r15, r11
    12e8:	8c 89       	ldd	r24, Y+20	; 0x14
    12ea:	9d 89       	ldd	r25, Y+21	; 0x15
    12ec:	ae 89       	ldd	r26, Y+22	; 0x16
    12ee:	bf 89       	ldd	r27, Y+23	; 0x17
    12f0:	c8 0e       	add	r12, r24
    12f2:	d9 1e       	adc	r13, r25
    12f4:	ea 1e       	adc	r14, r26
    12f6:	fb 1e       	adc	r15, r27
    12f8:	d8 01       	movw	r26, r16
    12fa:	20 e8       	ldi	r18, 0x80	; 128
    12fc:	31 e5       	ldi	r19, 0x51	; 81
    12fe:	41 e0       	ldi	r20, 0x01	; 1
    1300:	50 e0       	ldi	r21, 0x00	; 0
    1302:	0e 94 fe 14 	call	0x29fc	; 0x29fc <__muluhisi3>
    1306:	dc 01       	movw	r26, r24
    1308:	cb 01       	movw	r24, r22
    130a:	8c 0d       	add	r24, r12
    130c:	9d 1d       	adc	r25, r13
    130e:	ae 1d       	adc	r26, r14
    1310:	bf 1d       	adc	r27, r15
    1312:	80 93 fd 04 	sts	0x04FD, r24	; 0x8004fd <rtc_base>
    1316:	90 93 fe 04 	sts	0x04FE, r25	; 0x8004fe <rtc_base+0x1>
    131a:	a0 93 ff 04 	sts	0x04FF, r26	; 0x8004ff <rtc_base+0x2>
    131e:	b0 93 00 05 	sts	0x0500, r27	; 0x800500 <rtc_base+0x3>
    1322:	67 96       	adiw	r28, 0x17	; 23
    1324:	0f b6       	in	r0, 0x3f	; 63
    1326:	f8 94       	cli
    1328:	de bf       	out	0x3e, r29	; 62
    132a:	0f be       	out	0x3f, r0	; 63
    132c:	cd bf       	out	0x3d, r28	; 61
    132e:	df 91       	pop	r29
    1330:	cf 91       	pop	r28
    1332:	1f 91       	pop	r17
    1334:	0f 91       	pop	r16
    1336:	ff 90       	pop	r15
    1338:	ef 90       	pop	r14
    133a:	df 90       	pop	r13
    133c:	cf 90       	pop	r12
    133e:	bf 90       	pop	r11
    1340:	af 90       	pop	r10
    1342:	9f 90       	pop	r9
    1344:	8f 90       	pop	r8
    1346:	7f 90       	pop	r7
    1348:	6f 90       	pop	r6
    134a:	5f 90       	pop	r5
    134c:	4f 90       	pop	r4
    134e:	3f 90       	pop	r3
    1350:	2f 90       	pop	r2
    1352:	0c 94 24 0c 	jmp	0x1848	; 0x1848 <timer1_clear>

00001356 <get_month>:
    1356:	ef 92       	push	r14
    1358:	ff 92       	push	r15
    135a:	0f 93       	push	r16
    135c:	1f 93       	push	r17
    135e:	cf 93       	push	r28
    1360:	df 93       	push	r29
    1362:	cd b7       	in	r28, 0x3d	; 61
    1364:	de b7       	in	r29, 0x3e	; 62
    1366:	68 97       	sbiw	r28, 0x18	; 24
    1368:	0f b6       	in	r0, 0x3f	; 63
    136a:	f8 94       	cli
    136c:	de bf       	out	0x3e, r29	; 62
    136e:	0f be       	out	0x3f, r0	; 63
    1370:	cd bf       	out	0x3d, r28	; 61
    1372:	7b 01       	movw	r14, r22
    1374:	2c e0       	ldi	r18, 0x0C	; 12
    1376:	e8 e9       	ldi	r30, 0x98	; 152
    1378:	f1 e0       	ldi	r31, 0x01	; 1
    137a:	de 01       	movw	r26, r28
    137c:	1d 96       	adiw	r26, 0x0d	; 13
    137e:	01 90       	ld	r0, Z+
    1380:	0d 92       	st	X+, r0
    1382:	2a 95       	dec	r18
    1384:	e1 f7       	brne	.-8      	; 0x137e <get_month+0x28>
    1386:	8e 01       	movw	r16, r28
    1388:	0f 5f       	subi	r16, 0xFF	; 255
    138a:	1f 4f       	sbci	r17, 0xFF	; 255
    138c:	2c e0       	ldi	r18, 0x0C	; 12
    138e:	f8 01       	movw	r30, r16
    1390:	11 92       	st	Z+, r1
    1392:	2a 95       	dec	r18
    1394:	e9 f7       	brne	.-6      	; 0x1390 <get_month+0x3a>
    1396:	0e 94 2c 08 	call	0x1058	; 0x1058 <is_leapyear>
    139a:	8a 83       	std	Y+2, r24	; 0x02
    139c:	de 01       	movw	r26, r28
    139e:	1d 96       	adiw	r26, 0x0d	; 13
    13a0:	80 e0       	ldi	r24, 0x00	; 0
    13a2:	f7 01       	movw	r30, r14
    13a4:	40 81       	ld	r20, Z
    13a6:	51 81       	ldd	r21, Z+1	; 0x01
    13a8:	9d 91       	ld	r25, X+
    13aa:	f8 01       	movw	r30, r16
    13ac:	21 91       	ld	r18, Z+
    13ae:	8f 01       	movw	r16, r30
    13b0:	30 e0       	ldi	r19, 0x00	; 0
    13b2:	29 0f       	add	r18, r25
    13b4:	31 1d       	adc	r19, r1
    13b6:	42 17       	cp	r20, r18
    13b8:	53 07       	cpc	r21, r19
    13ba:	40 f0       	brcs	.+16     	; 0x13cc <get_month+0x76>
    13bc:	42 1b       	sub	r20, r18
    13be:	53 0b       	sbc	r21, r19
    13c0:	f7 01       	movw	r30, r14
    13c2:	51 83       	std	Z+1, r21	; 0x01
    13c4:	40 83       	st	Z, r20
    13c6:	8f 5f       	subi	r24, 0xFF	; 255
    13c8:	8c 30       	cpi	r24, 0x0C	; 12
    13ca:	59 f7       	brne	.-42     	; 0x13a2 <get_month+0x4c>
    13cc:	68 96       	adiw	r28, 0x18	; 24
    13ce:	0f b6       	in	r0, 0x3f	; 63
    13d0:	f8 94       	cli
    13d2:	de bf       	out	0x3e, r29	; 62
    13d4:	0f be       	out	0x3f, r0	; 63
    13d6:	cd bf       	out	0x3d, r28	; 61
    13d8:	df 91       	pop	r29
    13da:	cf 91       	pop	r28
    13dc:	1f 91       	pop	r17
    13de:	0f 91       	pop	r16
    13e0:	ff 90       	pop	r15
    13e2:	ef 90       	pop	r14
    13e4:	08 95       	ret

000013e6 <rtc_num2datestr>:
    13e6:	4f 92       	push	r4
    13e8:	5f 92       	push	r5
    13ea:	6f 92       	push	r6
    13ec:	7f 92       	push	r7
    13ee:	8f 92       	push	r8
    13f0:	9f 92       	push	r9
    13f2:	af 92       	push	r10
    13f4:	bf 92       	push	r11
    13f6:	cf 92       	push	r12
    13f8:	df 92       	push	r13
    13fa:	ef 92       	push	r14
    13fc:	ff 92       	push	r15
    13fe:	cf 93       	push	r28
    1400:	df 93       	push	r29
    1402:	00 d0       	rcall	.+0      	; 0x1404 <rtc_num2datestr+0x1e>
    1404:	cd b7       	in	r28, 0x3d	; 61
    1406:	de b7       	in	r29, 0x3e	; 62
    1408:	2b 01       	movw	r4, r22
    140a:	3c 01       	movw	r6, r24
    140c:	81 e0       	ldi	r24, 0x01	; 1
    140e:	90 e0       	ldi	r25, 0x00	; 0
    1410:	a0 e0       	ldi	r26, 0x00	; 0
    1412:	b0 e0       	ldi	r27, 0x00	; 0
    1414:	20 e8       	ldi	r18, 0x80	; 128
    1416:	42 16       	cp	r4, r18
    1418:	29 e5       	ldi	r18, 0x59	; 89
    141a:	52 06       	cpc	r5, r18
    141c:	20 e6       	ldi	r18, 0x60	; 96
    141e:	62 06       	cpc	r6, r18
    1420:	20 ef       	ldi	r18, 0xF0	; 240
    1422:	72 06       	cpc	r7, r18
    1424:	18 f4       	brcc	.+6      	; 0x142c <rtc_num2datestr+0x46>
    1426:	80 e0       	ldi	r24, 0x00	; 0
    1428:	90 e0       	ldi	r25, 0x00	; 0
    142a:	dc 01       	movw	r26, r24
    142c:	20 e9       	ldi	r18, 0x90	; 144
    142e:	31 e0       	ldi	r19, 0x01	; 1
    1430:	82 9f       	mul	r24, r18
    1432:	50 01       	movw	r10, r0
    1434:	83 9f       	mul	r24, r19
    1436:	b0 0c       	add	r11, r0
    1438:	92 9f       	mul	r25, r18
    143a:	b0 0c       	add	r11, r0
    143c:	11 24       	eor	r1, r1
    143e:	80 e3       	ldi	r24, 0x30	; 48
    1440:	a8 1a       	sub	r10, r24
    1442:	88 ef       	ldi	r24, 0xF8	; 248
    1444:	b8 0a       	sbc	r11, r24
    1446:	c1 2c       	mov	r12, r1
    1448:	d1 2c       	mov	r13, r1
    144a:	76 01       	movw	r14, r12
    144c:	c3 94       	inc	r12
    144e:	20 e8       	ldi	r18, 0x80	; 128
    1450:	42 16       	cp	r4, r18
    1452:	29 e5       	ldi	r18, 0x59	; 89
    1454:	52 06       	cpc	r5, r18
    1456:	20 e6       	ldi	r18, 0x60	; 96
    1458:	62 06       	cpc	r6, r18
    145a:	20 ef       	ldi	r18, 0xF0	; 240
    145c:	72 06       	cpc	r7, r18
    145e:	18 f4       	brcc	.+6      	; 0x1466 <rtc_num2datestr+0x80>
    1460:	c1 2c       	mov	r12, r1
    1462:	d1 2c       	mov	r13, r1
    1464:	76 01       	movw	r14, r12
    1466:	a7 01       	movw	r20, r14
    1468:	96 01       	movw	r18, r12
    146a:	60 e8       	ldi	r22, 0x80	; 128
    146c:	79 e5       	ldi	r23, 0x59	; 89
    146e:	80 e6       	ldi	r24, 0x60	; 96
    1470:	90 ef       	ldi	r25, 0xF0	; 240
    1472:	0e 94 70 14 	call	0x28e0	; 0x28e0 <__mulsi3>
    1476:	73 01       	movw	r14, r6
    1478:	62 01       	movw	r12, r4
    147a:	c6 1a       	sub	r12, r22
    147c:	d7 0a       	sbc	r13, r23
    147e:	e8 0a       	sbc	r14, r24
    1480:	f9 0a       	sbc	r15, r25
    1482:	81 e0       	ldi	r24, 0x01	; 1
    1484:	90 e0       	ldi	r25, 0x00	; 0
    1486:	a0 e0       	ldi	r26, 0x00	; 0
    1488:	b0 e0       	ldi	r27, 0x00	; 0
    148a:	c1 14       	cp	r12, r1
    148c:	22 ec       	ldi	r18, 0xC2	; 194
    148e:	d2 06       	cpc	r13, r18
    1490:	27 e1       	ldi	r18, 0x17	; 23
    1492:	e2 06       	cpc	r14, r18
    1494:	2c eb       	ldi	r18, 0xBC	; 188
    1496:	f2 06       	cpc	r15, r18
    1498:	18 f4       	brcc	.+6      	; 0x14a0 <rtc_num2datestr+0xba>
    149a:	80 e0       	ldi	r24, 0x00	; 0
    149c:	90 e0       	ldi	r25, 0x00	; 0
    149e:	dc 01       	movw	r26, r24
    14a0:	44 e6       	ldi	r20, 0x64	; 100
    14a2:	48 9f       	mul	r20, r24
    14a4:	90 01       	movw	r18, r0
    14a6:	49 9f       	mul	r20, r25
    14a8:	30 0d       	add	r19, r0
    14aa:	11 24       	eor	r1, r1
    14ac:	a2 0e       	add	r10, r18
    14ae:	b3 1e       	adc	r11, r19
    14b0:	21 e0       	ldi	r18, 0x01	; 1
    14b2:	30 e0       	ldi	r19, 0x00	; 0
    14b4:	40 e0       	ldi	r20, 0x00	; 0
    14b6:	50 e0       	ldi	r21, 0x00	; 0
    14b8:	c1 14       	cp	r12, r1
    14ba:	82 ec       	ldi	r24, 0xC2	; 194
    14bc:	d8 06       	cpc	r13, r24
    14be:	87 e1       	ldi	r24, 0x17	; 23
    14c0:	e8 06       	cpc	r14, r24
    14c2:	8c eb       	ldi	r24, 0xBC	; 188
    14c4:	f8 06       	cpc	r15, r24
    14c6:	18 f4       	brcc	.+6      	; 0x14ce <rtc_num2datestr+0xe8>
    14c8:	20 e0       	ldi	r18, 0x00	; 0
    14ca:	30 e0       	ldi	r19, 0x00	; 0
    14cc:	a9 01       	movw	r20, r18
    14ce:	60 e0       	ldi	r22, 0x00	; 0
    14d0:	72 ec       	ldi	r23, 0xC2	; 194
    14d2:	87 e1       	ldi	r24, 0x17	; 23
    14d4:	9c eb       	ldi	r25, 0xBC	; 188
    14d6:	0e 94 70 14 	call	0x28e0	; 0x28e0 <__mulsi3>
    14da:	a7 01       	movw	r20, r14
    14dc:	96 01       	movw	r18, r12
    14de:	26 1b       	sub	r18, r22
    14e0:	37 0b       	sbc	r19, r23
    14e2:	48 0b       	sbc	r20, r24
    14e4:	59 0b       	sbc	r21, r25
    14e6:	ca 01       	movw	r24, r20
    14e8:	b9 01       	movw	r22, r18
    14ea:	20 e8       	ldi	r18, 0x80	; 128
    14ec:	3f e1       	ldi	r19, 0x1F	; 31
    14ee:	46 e8       	ldi	r20, 0x86	; 134
    14f0:	57 e0       	ldi	r21, 0x07	; 7
    14f2:	0e 94 a8 14 	call	0x2950	; 0x2950 <__udivmodsi4>
    14f6:	22 0f       	add	r18, r18
    14f8:	33 1f       	adc	r19, r19
    14fa:	22 0f       	add	r18, r18
    14fc:	33 1f       	adc	r19, r19
    14fe:	a2 0e       	add	r10, r18
    1500:	b3 1e       	adc	r11, r19
    1502:	20 e8       	ldi	r18, 0x80	; 128
    1504:	33 e3       	ldi	r19, 0x33	; 51
    1506:	41 ee       	ldi	r20, 0xE1	; 225
    1508:	51 e0       	ldi	r21, 0x01	; 1
    150a:	0e 94 a8 14 	call	0x2950	; 0x2950 <__udivmodsi4>
    150e:	75 01       	movw	r14, r10
    1510:	e2 0e       	add	r14, r18
    1512:	f3 1e       	adc	r15, r19
    1514:	20 e8       	ldi	r18, 0x80	; 128
    1516:	31 e5       	ldi	r19, 0x51	; 81
    1518:	41 e0       	ldi	r20, 0x01	; 1
    151a:	50 e0       	ldi	r21, 0x00	; 0
    151c:	0e 94 a8 14 	call	0x2950	; 0x2950 <__udivmodsi4>
    1520:	4b 01       	movw	r8, r22
    1522:	5c 01       	movw	r10, r24
    1524:	3a 83       	std	Y+2, r19	; 0x02
    1526:	29 83       	std	Y+1, r18	; 0x01
    1528:	be 01       	movw	r22, r28
    152a:	6f 5f       	subi	r22, 0xFF	; 255
    152c:	7f 4f       	sbci	r23, 0xFF	; 255
    152e:	c7 01       	movw	r24, r14
    1530:	0e 94 ab 09 	call	0x1356	; 0x1356 <get_month>
    1534:	d8 2e       	mov	r13, r24
    1536:	c5 01       	movw	r24, r10
    1538:	b4 01       	movw	r22, r8
    153a:	20 e1       	ldi	r18, 0x10	; 16
    153c:	3e e0       	ldi	r19, 0x0E	; 14
    153e:	40 e0       	ldi	r20, 0x00	; 0
    1540:	50 e0       	ldi	r21, 0x00	; 0
    1542:	0e 94 a8 14 	call	0x2950	; 0x2950 <__udivmodsi4>
    1546:	29 01       	movw	r4, r18
    1548:	3a 01       	movw	r6, r20
    154a:	4b 01       	movw	r8, r22
    154c:	5c 01       	movw	r10, r24
    154e:	65 ee       	ldi	r22, 0xE5	; 229
    1550:	71 e0       	ldi	r23, 0x01	; 1
    1552:	84 e1       	ldi	r24, 0x14	; 20
    1554:	91 e0       	ldi	r25, 0x01	; 1
    1556:	0e 94 37 0b 	call	0x166e	; 0x166e <str_cpy>
    155a:	6d 2d       	mov	r22, r13
    155c:	70 e0       	ldi	r23, 0x00	; 0
    155e:	6f 5f       	subi	r22, 0xFF	; 255
    1560:	7f 4f       	sbci	r23, 0xFF	; 255
    1562:	42 e0       	ldi	r20, 0x02	; 2
    1564:	84 e1       	ldi	r24, 0x14	; 20
    1566:	91 e0       	ldi	r25, 0x01	; 1
    1568:	0e 94 4a 0b 	call	0x1694	; 0x1694 <str_writeudec16>
    156c:	69 81       	ldd	r22, Y+1	; 0x01
    156e:	7a 81       	ldd	r23, Y+2	; 0x02
    1570:	6f 5f       	subi	r22, 0xFF	; 255
    1572:	7f 4f       	sbci	r23, 0xFF	; 255
    1574:	42 e0       	ldi	r20, 0x02	; 2
    1576:	87 e1       	ldi	r24, 0x17	; 23
    1578:	91 e0       	ldi	r25, 0x01	; 1
    157a:	0e 94 4a 0b 	call	0x1694	; 0x1694 <str_writeudec16>
    157e:	44 e0       	ldi	r20, 0x04	; 4
    1580:	b7 01       	movw	r22, r14
    1582:	8a e1       	ldi	r24, 0x1A	; 26
    1584:	91 e0       	ldi	r25, 0x01	; 1
    1586:	0e 94 4a 0b 	call	0x1694	; 0x1694 <str_writeudec16>
    158a:	42 e0       	ldi	r20, 0x02	; 2
    158c:	b2 01       	movw	r22, r4
    158e:	8f e1       	ldi	r24, 0x1F	; 31
    1590:	91 e0       	ldi	r25, 0x01	; 1
    1592:	0e 94 4a 0b 	call	0x1694	; 0x1694 <str_writeudec16>
    1596:	c5 01       	movw	r24, r10
    1598:	b4 01       	movw	r22, r8
    159a:	2c e3       	ldi	r18, 0x3C	; 60
    159c:	30 e0       	ldi	r19, 0x00	; 0
    159e:	40 e0       	ldi	r20, 0x00	; 0
    15a0:	50 e0       	ldi	r21, 0x00	; 0
    15a2:	0e 94 a8 14 	call	0x2950	; 0x2950 <__udivmodsi4>
    15a6:	49 01       	movw	r8, r18
    15a8:	5a 01       	movw	r10, r20
    15aa:	6b 01       	movw	r12, r22
    15ac:	7c 01       	movw	r14, r24
    15ae:	42 e0       	ldi	r20, 0x02	; 2
    15b0:	b4 01       	movw	r22, r8
    15b2:	82 e2       	ldi	r24, 0x22	; 34
    15b4:	91 e0       	ldi	r25, 0x01	; 1
    15b6:	0e 94 4a 0b 	call	0x1694	; 0x1694 <str_writeudec16>
    15ba:	42 e0       	ldi	r20, 0x02	; 2
    15bc:	b6 01       	movw	r22, r12
    15be:	85 e2       	ldi	r24, 0x25	; 37
    15c0:	91 e0       	ldi	r25, 0x01	; 1
    15c2:	0e 94 4a 0b 	call	0x1694	; 0x1694 <str_writeudec16>
    15c6:	84 e1       	ldi	r24, 0x14	; 20
    15c8:	91 e0       	ldi	r25, 0x01	; 1
    15ca:	0f 90       	pop	r0
    15cc:	0f 90       	pop	r0
    15ce:	df 91       	pop	r29
    15d0:	cf 91       	pop	r28
    15d2:	ff 90       	pop	r15
    15d4:	ef 90       	pop	r14
    15d6:	df 90       	pop	r13
    15d8:	cf 90       	pop	r12
    15da:	bf 90       	pop	r11
    15dc:	af 90       	pop	r10
    15de:	9f 90       	pop	r9
    15e0:	8f 90       	pop	r8
    15e2:	7f 90       	pop	r7
    15e4:	6f 90       	pop	r6
    15e6:	5f 90       	pop	r5
    15e8:	4f 90       	pop	r4
    15ea:	08 95       	ret

000015ec <rtc_get_date_string>:
    15ec:	0f 93       	push	r16
    15ee:	1f 93       	push	r17
    15f0:	0e 94 18 0c 	call	0x1830	; 0x1830 <timer1_get>
    15f4:	00 91 fd 04 	lds	r16, 0x04FD	; 0x8004fd <rtc_base>
    15f8:	10 91 fe 04 	lds	r17, 0x04FE	; 0x8004fe <rtc_base+0x1>
    15fc:	20 91 ff 04 	lds	r18, 0x04FF	; 0x8004ff <rtc_base+0x2>
    1600:	30 91 00 05 	lds	r19, 0x0500	; 0x800500 <rtc_base+0x3>
    1604:	60 0f       	add	r22, r16
    1606:	71 1f       	adc	r23, r17
    1608:	82 1f       	adc	r24, r18
    160a:	93 1f       	adc	r25, r19
    160c:	1f 91       	pop	r17
    160e:	0f 91       	pop	r16
    1610:	0c 94 f3 09 	jmp	0x13e6	; 0x13e6 <rtc_num2datestr>

00001614 <mem_cpy>:
    1614:	fb 01       	movw	r30, r22
    1616:	48 0f       	add	r20, r24
    1618:	59 1f       	adc	r21, r25
    161a:	84 17       	cp	r24, r20
    161c:	95 07       	cpc	r25, r21
    161e:	29 f0       	breq	.+10     	; 0x162a <mem_cpy+0x16>
    1620:	21 91       	ld	r18, Z+
    1622:	dc 01       	movw	r26, r24
    1624:	2d 93       	st	X+, r18
    1626:	cd 01       	movw	r24, r26
    1628:	f8 cf       	rjmp	.-16     	; 0x161a <mem_cpy+0x6>
    162a:	08 95       	ret

0000162c <mem_set>:
    162c:	48 0f       	add	r20, r24
    162e:	59 1f       	adc	r21, r25
    1630:	84 17       	cp	r24, r20
    1632:	95 07       	cpc	r25, r21
    1634:	21 f0       	breq	.+8      	; 0x163e <mem_set+0x12>
    1636:	fc 01       	movw	r30, r24
    1638:	61 93       	st	Z+, r22
    163a:	cf 01       	movw	r24, r30
    163c:	f9 cf       	rjmp	.-14     	; 0x1630 <mem_set+0x4>
    163e:	08 95       	ret

00001640 <mem_cmp>:
    1640:	fb 01       	movw	r30, r22
    1642:	48 0f       	add	r20, r24
    1644:	59 1f       	adc	r21, r25
    1646:	84 17       	cp	r24, r20
    1648:	95 07       	cpc	r25, r21
    164a:	59 f0       	breq	.+22     	; 0x1662 <mem_cmp+0x22>
    164c:	dc 01       	movw	r26, r24
    164e:	3d 91       	ld	r19, X+
    1650:	cd 01       	movw	r24, r26
    1652:	21 91       	ld	r18, Z+
    1654:	32 17       	cp	r19, r18
    1656:	40 f0       	brcs	.+16     	; 0x1668 <mem_cmp+0x28>
    1658:	23 17       	cp	r18, r19
    165a:	a8 f7       	brcc	.-22     	; 0x1646 <mem_cmp+0x6>
    165c:	81 e0       	ldi	r24, 0x01	; 1
    165e:	90 e0       	ldi	r25, 0x00	; 0
    1660:	08 95       	ret
    1662:	80 e0       	ldi	r24, 0x00	; 0
    1664:	90 e0       	ldi	r25, 0x00	; 0
    1666:	08 95       	ret
    1668:	8f ef       	ldi	r24, 0xFF	; 255
    166a:	9f ef       	ldi	r25, 0xFF	; 255
    166c:	08 95       	ret

0000166e <str_cpy>:
    166e:	fc 01       	movw	r30, r24
    1670:	db 01       	movw	r26, r22
    1672:	8d 91       	ld	r24, X+
    1674:	bd 01       	movw	r22, r26
    1676:	88 23       	and	r24, r24
    1678:	11 f0       	breq	.+4      	; 0x167e <str_cpy+0x10>
    167a:	81 93       	st	Z+, r24
    167c:	f9 cf       	rjmp	.-14     	; 0x1670 <str_cpy+0x2>
    167e:	10 82       	st	Z, r1
    1680:	08 95       	ret

00001682 <str_len>:
    1682:	fc 01       	movw	r30, r24
    1684:	9f 01       	movw	r18, r30
    1686:	28 1b       	sub	r18, r24
    1688:	39 0b       	sbc	r19, r25
    168a:	41 91       	ld	r20, Z+
    168c:	41 11       	cpse	r20, r1
    168e:	fa cf       	rjmp	.-12     	; 0x1684 <str_len+0x2>
    1690:	c9 01       	movw	r24, r18
    1692:	08 95       	ret

00001694 <str_writeudec16>:
    1694:	9f 92       	push	r9
    1696:	af 92       	push	r10
    1698:	bf 92       	push	r11
    169a:	cf 92       	push	r12
    169c:	df 92       	push	r13
    169e:	ef 92       	push	r14
    16a0:	ff 92       	push	r15
    16a2:	0f 93       	push	r16
    16a4:	1f 93       	push	r17
    16a6:	cf 93       	push	r28
    16a8:	df 93       	push	r29
    16aa:	00 d0       	rcall	.+0      	; 0x16ac <str_writeudec16+0x18>
    16ac:	00 d0       	rcall	.+0      	; 0x16ae <str_writeudec16+0x1a>
    16ae:	1f 92       	push	r1
    16b0:	cd b7       	in	r28, 0x3d	; 61
    16b2:	de b7       	in	r29, 0x3e	; 62
    16b4:	fc 01       	movw	r30, r24
    16b6:	6b 01       	movw	r12, r22
    16b8:	9e 01       	movw	r18, r28
    16ba:	2f 5f       	subi	r18, 0xFF	; 255
    16bc:	3f 4f       	sbci	r19, 0xFF	; 255
    16be:	8e 01       	movw	r16, r28
    16c0:	0a 5f       	subi	r16, 0xFA	; 250
    16c2:	1f 4f       	sbci	r17, 0xFF	; 255
    16c4:	ee 24       	eor	r14, r14
    16c6:	e3 94       	inc	r14
    16c8:	f1 2c       	mov	r15, r1
    16ca:	9a e0       	ldi	r25, 0x0A	; 10
    16cc:	99 2e       	mov	r9, r25
    16ce:	9e 9c       	mul	r9, r14
    16d0:	50 01       	movw	r10, r0
    16d2:	9f 9c       	mul	r9, r15
    16d4:	b0 0c       	add	r11, r0
    16d6:	11 24       	eor	r1, r1
    16d8:	c6 01       	movw	r24, r12
    16da:	b5 01       	movw	r22, r10
    16dc:	0e 94 80 14 	call	0x2900	; 0x2900 <__udivmodhi4>
    16e0:	b7 01       	movw	r22, r14
    16e2:	0e 94 80 14 	call	0x2900	; 0x2900 <__udivmodhi4>
    16e6:	d9 01       	movw	r26, r18
    16e8:	6d 93       	st	X+, r22
    16ea:	9d 01       	movw	r18, r26
    16ec:	c6 1a       	sub	r12, r22
    16ee:	d1 08       	sbc	r13, r1
    16f0:	67 fd       	sbrc	r22, 7
    16f2:	d3 94       	inc	r13
    16f4:	75 01       	movw	r14, r10
    16f6:	a0 17       	cp	r26, r16
    16f8:	b1 07       	cpc	r27, r17
    16fa:	49 f7       	brne	.-46     	; 0x16ce <str_writeudec16+0x3a>
    16fc:	60 e0       	ldi	r22, 0x00	; 0
    16fe:	70 e0       	ldi	r23, 0x00	; 0
    1700:	84 e0       	ldi	r24, 0x04	; 4
    1702:	90 e0       	ldi	r25, 0x00	; 0
    1704:	50 e0       	ldi	r21, 0x00	; 0
    1706:	d8 01       	movw	r26, r16
    1708:	2e 91       	ld	r18, -X
    170a:	8d 01       	movw	r16, r26
    170c:	21 11       	cpse	r18, r1
    170e:	05 c0       	rjmp	.+10     	; 0x171a <str_writeudec16+0x86>
    1710:	61 15       	cp	r22, r1
    1712:	71 05       	cpc	r23, r1
    1714:	11 f4       	brne	.+4      	; 0x171a <str_writeudec16+0x86>
    1716:	00 97       	sbiw	r24, 0x00	; 0
    1718:	41 f4       	brne	.+16     	; 0x172a <str_writeudec16+0x96>
    171a:	84 17       	cp	r24, r20
    171c:	95 07       	cpc	r25, r21
    171e:	2c f4       	brge	.+10     	; 0x172a <str_writeudec16+0x96>
    1720:	20 5d       	subi	r18, 0xD0	; 208
    1722:	21 93       	st	Z+, r18
    1724:	61 e0       	ldi	r22, 0x01	; 1
    1726:	70 e0       	ldi	r23, 0x00	; 0
    1728:	04 c0       	rjmp	.+8      	; 0x1732 <str_writeudec16+0x9e>
    172a:	84 17       	cp	r24, r20
    172c:	95 07       	cpc	r25, r21
    172e:	0c f4       	brge	.+2      	; 0x1732 <str_writeudec16+0x9e>
    1730:	31 96       	adiw	r30, 0x01	; 1
    1732:	01 97       	sbiw	r24, 0x01	; 1
    1734:	40 f7       	brcc	.-48     	; 0x1706 <str_writeudec16+0x72>
    1736:	0f 90       	pop	r0
    1738:	0f 90       	pop	r0
    173a:	0f 90       	pop	r0
    173c:	0f 90       	pop	r0
    173e:	0f 90       	pop	r0
    1740:	df 91       	pop	r29
    1742:	cf 91       	pop	r28
    1744:	1f 91       	pop	r17
    1746:	0f 91       	pop	r16
    1748:	ff 90       	pop	r15
    174a:	ef 90       	pop	r14
    174c:	df 90       	pop	r13
    174e:	cf 90       	pop	r12
    1750:	bf 90       	pop	r11
    1752:	af 90       	pop	r10
    1754:	9f 90       	pop	r9
    1756:	08 95       	ret

00001758 <temp_init>:
    1758:	88 ec       	ldi	r24, 0xC8	; 200
    175a:	80 93 7c 00 	sts	0x007C, r24	; 0x80007c <__TEXT_REGION_LENGTH__+0x7e007c>
    175e:	86 e8       	ldi	r24, 0x86	; 134
    1760:	80 93 7a 00 	sts	0x007A, r24	; 0x80007a <__TEXT_REGION_LENGTH__+0x7e007a>
    1764:	08 95       	ret

00001766 <temp_is_data_ready>:
    1766:	80 91 7a 00 	lds	r24, 0x007A	; 0x80007a <__TEXT_REGION_LENGTH__+0x7e007a>
    176a:	82 95       	swap	r24
    176c:	86 95       	lsr	r24
    176e:	86 95       	lsr	r24
    1770:	83 70       	andi	r24, 0x03	; 3
    1772:	91 e0       	ldi	r25, 0x01	; 1
    1774:	89 27       	eor	r24, r25
    1776:	81 70       	andi	r24, 0x01	; 1
    1778:	90 e0       	ldi	r25, 0x00	; 0
    177a:	08 95       	ret

0000177c <temp_start>:
    177c:	ea e7       	ldi	r30, 0x7A	; 122
    177e:	f0 e0       	ldi	r31, 0x00	; 0
    1780:	80 81       	ld	r24, Z
    1782:	80 64       	ori	r24, 0x40	; 64
    1784:	80 83       	st	Z, r24
    1786:	08 95       	ret

00001788 <temp_get>:
    1788:	80 91 78 00 	lds	r24, 0x0078	; 0x800078 <__TEXT_REGION_LENGTH__+0x7e0078>
    178c:	20 91 79 00 	lds	r18, 0x0079	; 0x800079 <__TEXT_REGION_LENGTH__+0x7e0079>
    1790:	30 e0       	ldi	r19, 0x00	; 0
    1792:	32 2f       	mov	r19, r18
    1794:	22 27       	eor	r18, r18
    1796:	a9 01       	movw	r20, r18
    1798:	33 0f       	add	r19, r19
    179a:	66 0b       	sbc	r22, r22
    179c:	77 0b       	sbc	r23, r23
    179e:	9a 01       	movw	r18, r20
    17a0:	ab 01       	movw	r20, r22
    17a2:	28 2b       	or	r18, r24
    17a4:	a5 e6       	ldi	r26, 0x65	; 101
    17a6:	b0 e0       	ldi	r27, 0x00	; 0
    17a8:	0e 94 fe 14 	call	0x29fc	; 0x29fc <__muluhisi3>
    17ac:	24 e6       	ldi	r18, 0x64	; 100
    17ae:	30 e0       	ldi	r19, 0x00	; 0
    17b0:	40 e0       	ldi	r20, 0x00	; 0
    17b2:	50 e0       	ldi	r21, 0x00	; 0
    17b4:	0e 94 ca 14 	call	0x2994	; 0x2994 <__divmodsi4>
    17b8:	da 01       	movw	r26, r20
    17ba:	c9 01       	movw	r24, r18
    17bc:	81 51       	subi	r24, 0x11	; 17
    17be:	91 40       	sbci	r25, 0x01	; 1
    17c0:	a1 09       	sbc	r26, r1
    17c2:	b1 09       	sbc	r27, r1
    17c4:	08 95       	ret

000017c6 <__vector_11>:
    17c6:	1f 92       	push	r1
    17c8:	0f 92       	push	r0
    17ca:	0f b6       	in	r0, 0x3f	; 63
    17cc:	0f 92       	push	r0
    17ce:	11 24       	eor	r1, r1
    17d0:	8f 93       	push	r24
    17d2:	9f 93       	push	r25
    17d4:	af 93       	push	r26
    17d6:	bf 93       	push	r27
    17d8:	80 91 5b 04 	lds	r24, 0x045B	; 0x80045b <timer1_count>
    17dc:	90 91 5c 04 	lds	r25, 0x045C	; 0x80045c <timer1_count+0x1>
    17e0:	a0 91 5d 04 	lds	r26, 0x045D	; 0x80045d <timer1_count+0x2>
    17e4:	b0 91 5e 04 	lds	r27, 0x045E	; 0x80045e <timer1_count+0x3>
    17e8:	01 96       	adiw	r24, 0x01	; 1
    17ea:	a1 1d       	adc	r26, r1
    17ec:	b1 1d       	adc	r27, r1
    17ee:	80 93 5b 04 	sts	0x045B, r24	; 0x80045b <timer1_count>
    17f2:	90 93 5c 04 	sts	0x045C, r25	; 0x80045c <timer1_count+0x1>
    17f6:	a0 93 5d 04 	sts	0x045D, r26	; 0x80045d <timer1_count+0x2>
    17fa:	b0 93 5e 04 	sts	0x045E, r27	; 0x80045e <timer1_count+0x3>
    17fe:	bf 91       	pop	r27
    1800:	af 91       	pop	r26
    1802:	9f 91       	pop	r25
    1804:	8f 91       	pop	r24
    1806:	0f 90       	pop	r0
    1808:	0f be       	out	0x3f, r0	; 63
    180a:	0f 90       	pop	r0
    180c:	1f 90       	pop	r1
    180e:	18 95       	reti

00001810 <timer1_init>:
    1810:	83 e2       	ldi	r24, 0x23	; 35
    1812:	94 ef       	ldi	r25, 0xF4	; 244
    1814:	90 93 89 00 	sts	0x0089, r25	; 0x800089 <__TEXT_REGION_LENGTH__+0x7e0089>
    1818:	80 93 88 00 	sts	0x0088, r24	; 0x800088 <__TEXT_REGION_LENGTH__+0x7e0088>
    181c:	10 92 80 00 	sts	0x0080, r1	; 0x800080 <__TEXT_REGION_LENGTH__+0x7e0080>
    1820:	8c e0       	ldi	r24, 0x0C	; 12
    1822:	80 93 81 00 	sts	0x0081, r24	; 0x800081 <__TEXT_REGION_LENGTH__+0x7e0081>
    1826:	78 94       	sei
    1828:	82 e0       	ldi	r24, 0x02	; 2
    182a:	80 93 6f 00 	sts	0x006F, r24	; 0x80006f <__TEXT_REGION_LENGTH__+0x7e006f>
    182e:	08 95       	ret

00001830 <timer1_get>:
    1830:	2f b7       	in	r18, 0x3f	; 63
    1832:	f8 94       	cli
    1834:	60 91 5b 04 	lds	r22, 0x045B	; 0x80045b <timer1_count>
    1838:	70 91 5c 04 	lds	r23, 0x045C	; 0x80045c <timer1_count+0x1>
    183c:	80 91 5d 04 	lds	r24, 0x045D	; 0x80045d <timer1_count+0x2>
    1840:	90 91 5e 04 	lds	r25, 0x045E	; 0x80045e <timer1_count+0x3>
    1844:	2f bf       	out	0x3f, r18	; 63
    1846:	08 95       	ret

00001848 <timer1_clear>:
    1848:	8f b7       	in	r24, 0x3f	; 63
    184a:	f8 94       	cli
    184c:	10 92 5b 04 	sts	0x045B, r1	; 0x80045b <timer1_count>
    1850:	10 92 5c 04 	sts	0x045C, r1	; 0x80045c <timer1_count+0x1>
    1854:	10 92 5d 04 	sts	0x045D, r1	; 0x80045d <timer1_count+0x2>
    1858:	10 92 5e 04 	sts	0x045E, r1	; 0x80045e <timer1_count+0x3>
    185c:	8f bf       	out	0x3f, r24	; 63
    185e:	08 95       	ret

00001860 <uart_init>:
    1860:	0e 94 52 12 	call	0x24a4	; 0x24a4 <serial_init>
    1864:	78 94       	sei
    1866:	08 95       	ret

00001868 <uart_writechar>:
    1868:	0c 94 16 14 	jmp	0x282c	; 0x282c <serial_writechar>

0000186c <uart_writestr>:
    186c:	cf 93       	push	r28
    186e:	df 93       	push	r29
    1870:	ec 01       	movw	r28, r24
    1872:	89 91       	ld	r24, Y+
    1874:	88 23       	and	r24, r24
    1876:	19 f0       	breq	.+6      	; 0x187e <uart_writestr+0x12>
    1878:	0e 94 16 14 	call	0x282c	; 0x282c <serial_writechar>
    187c:	fa cf       	rjmp	.-12     	; 0x1872 <uart_writestr+0x6>
    187e:	df 91       	pop	r29
    1880:	cf 91       	pop	r28
    1882:	08 95       	ret

00001884 <uart_writehex8>:
    1884:	cf 93       	push	r28
    1886:	c8 2f       	mov	r28, r24
    1888:	90 e0       	ldi	r25, 0x00	; 0
    188a:	24 e0       	ldi	r18, 0x04	; 4
    188c:	95 95       	asr	r25
    188e:	87 95       	ror	r24
    1890:	2a 95       	dec	r18
    1892:	e1 f7       	brne	.-8      	; 0x188c <uart_writehex8+0x8>
    1894:	8a 30       	cpi	r24, 0x0A	; 10
    1896:	10 f4       	brcc	.+4      	; 0x189c <uart_writehex8+0x18>
    1898:	80 5d       	subi	r24, 0xD0	; 208
    189a:	01 c0       	rjmp	.+2      	; 0x189e <uart_writehex8+0x1a>
    189c:	89 5c       	subi	r24, 0xC9	; 201
    189e:	0e 94 16 14 	call	0x282c	; 0x282c <serial_writechar>
    18a2:	8c 2f       	mov	r24, r28
    18a4:	8f 70       	andi	r24, 0x0F	; 15
    18a6:	8a 30       	cpi	r24, 0x0A	; 10
    18a8:	10 f0       	brcs	.+4      	; 0x18ae <uart_writehex8+0x2a>
    18aa:	89 5c       	subi	r24, 0xC9	; 201
    18ac:	01 c0       	rjmp	.+2      	; 0x18b0 <uart_writehex8+0x2c>
    18ae:	80 5d       	subi	r24, 0xD0	; 208
    18b0:	cf 91       	pop	r28
    18b2:	0c 94 16 14 	jmp	0x282c	; 0x282c <serial_writechar>

000018b6 <uart_writehex16>:
    18b6:	cf 93       	push	r28
    18b8:	c8 2f       	mov	r28, r24
    18ba:	89 2f       	mov	r24, r25
    18bc:	0e 94 42 0c 	call	0x1884	; 0x1884 <uart_writehex8>
    18c0:	8c 2f       	mov	r24, r28
    18c2:	cf 91       	pop	r28
    18c4:	0c 94 42 0c 	jmp	0x1884	; 0x1884 <uart_writehex8>

000018c8 <uart_writedec32>:
    18c8:	2f 92       	push	r2
    18ca:	3f 92       	push	r3
    18cc:	4f 92       	push	r4
    18ce:	5f 92       	push	r5
    18d0:	6f 92       	push	r6
    18d2:	7f 92       	push	r7
    18d4:	8f 92       	push	r8
    18d6:	9f 92       	push	r9
    18d8:	af 92       	push	r10
    18da:	bf 92       	push	r11
    18dc:	cf 92       	push	r12
    18de:	df 92       	push	r13
    18e0:	ef 92       	push	r14
    18e2:	ff 92       	push	r15
    18e4:	0f 93       	push	r16
    18e6:	1f 93       	push	r17
    18e8:	cf 93       	push	r28
    18ea:	df 93       	push	r29
    18ec:	cd b7       	in	r28, 0x3d	; 61
    18ee:	de b7       	in	r29, 0x3e	; 62
    18f0:	63 97       	sbiw	r28, 0x13	; 19
    18f2:	0f b6       	in	r0, 0x3f	; 63
    18f4:	f8 94       	cli
    18f6:	de bf       	out	0x3e, r29	; 62
    18f8:	0f be       	out	0x3f, r0	; 63
    18fa:	cd bf       	out	0x3d, r28	; 61
    18fc:	6b 01       	movw	r12, r22
    18fe:	7c 01       	movw	r14, r24
    1900:	97 ff       	sbrs	r25, 7
    1902:	0d c0       	rjmp	.+26     	; 0x191e <uart_writedec32+0x56>
    1904:	f0 94       	com	r15
    1906:	e0 94       	com	r14
    1908:	d0 94       	com	r13
    190a:	c0 94       	com	r12
    190c:	c1 1c       	adc	r12, r1
    190e:	d1 1c       	adc	r13, r1
    1910:	e1 1c       	adc	r14, r1
    1912:	f1 1c       	adc	r15, r1
    1914:	81 e0       	ldi	r24, 0x01	; 1
    1916:	90 e0       	ldi	r25, 0x00	; 0
    1918:	9b 8b       	std	Y+19, r25	; 0x13
    191a:	8a 8b       	std	Y+18, r24	; 0x12
    191c:	02 c0       	rjmp	.+4      	; 0x1922 <uart_writedec32+0x5a>
    191e:	1b 8a       	std	Y+19, r1	; 0x13
    1920:	1a 8a       	std	Y+18, r1	; 0x12
    1922:	fe 01       	movw	r30, r28
    1924:	31 96       	adiw	r30, 0x01	; 1
    1926:	5f 01       	movw	r10, r30
    1928:	8e 01       	movw	r16, r28
    192a:	05 5f       	subi	r16, 0xF5	; 245
    192c:	1f 4f       	sbci	r17, 0xFF	; 255
    192e:	f9 8b       	std	Y+17, r31	; 0x11
    1930:	e8 8b       	std	Y+16, r30	; 0x10
    1932:	66 24       	eor	r6, r6
    1934:	63 94       	inc	r6
    1936:	71 2c       	mov	r7, r1
    1938:	81 2c       	mov	r8, r1
    193a:	91 2c       	mov	r9, r1
    193c:	aa e0       	ldi	r26, 0x0A	; 10
    193e:	b0 e0       	ldi	r27, 0x00	; 0
    1940:	93 01       	movw	r18, r6
    1942:	a4 01       	movw	r20, r8
    1944:	0e 94 fe 14 	call	0x29fc	; 0x29fc <__muluhisi3>
    1948:	1b 01       	movw	r2, r22
    194a:	2c 01       	movw	r4, r24
    194c:	c7 01       	movw	r24, r14
    194e:	b6 01       	movw	r22, r12
    1950:	91 01       	movw	r18, r2
    1952:	a2 01       	movw	r20, r4
    1954:	0e 94 ca 14 	call	0x2994	; 0x2994 <__divmodsi4>
    1958:	93 01       	movw	r18, r6
    195a:	a4 01       	movw	r20, r8
    195c:	0e 94 ca 14 	call	0x2994	; 0x2994 <__divmodsi4>
    1960:	e8 89       	ldd	r30, Y+16	; 0x10
    1962:	f9 89       	ldd	r31, Y+17	; 0x11
    1964:	21 93       	st	Z+, r18
    1966:	f9 8b       	std	Y+17, r31	; 0x11
    1968:	e8 8b       	std	Y+16, r30	; 0x10
    196a:	82 2f       	mov	r24, r18
    196c:	22 0f       	add	r18, r18
    196e:	99 0b       	sbc	r25, r25
    1970:	aa 0b       	sbc	r26, r26
    1972:	bb 0b       	sbc	r27, r27
    1974:	c8 1a       	sub	r12, r24
    1976:	d9 0a       	sbc	r13, r25
    1978:	ea 0a       	sbc	r14, r26
    197a:	fb 0a       	sbc	r15, r27
    197c:	31 01       	movw	r6, r2
    197e:	42 01       	movw	r8, r4
    1980:	0e 17       	cp	r16, r30
    1982:	1f 07       	cpc	r17, r31
    1984:	d9 f6       	brne	.-74     	; 0x193c <uart_writedec32+0x74>
    1986:	8a 89       	ldd	r24, Y+18	; 0x12
    1988:	9b 89       	ldd	r25, Y+19	; 0x13
    198a:	89 2b       	or	r24, r25
    198c:	19 f0       	breq	.+6      	; 0x1994 <uart_writedec32+0xcc>
    198e:	8d e2       	ldi	r24, 0x2D	; 45
    1990:	0e 94 16 14 	call	0x282c	; 0x282c <serial_writechar>
    1994:	20 e0       	ldi	r18, 0x00	; 0
    1996:	30 e0       	ldi	r19, 0x00	; 0
    1998:	f8 01       	movw	r30, r16
    199a:	82 91       	ld	r24, -Z
    199c:	8f 01       	movw	r16, r30
    199e:	81 11       	cpse	r24, r1
    19a0:	06 c0       	rjmp	.+12     	; 0x19ae <uart_writedec32+0xe6>
    19a2:	21 15       	cp	r18, r1
    19a4:	31 05       	cpc	r19, r1
    19a6:	19 f4       	brne	.+6      	; 0x19ae <uart_writedec32+0xe6>
    19a8:	ea 15       	cp	r30, r10
    19aa:	fb 05       	cpc	r31, r11
    19ac:	29 f4       	brne	.+10     	; 0x19b8 <uart_writedec32+0xf0>
    19ae:	80 5d       	subi	r24, 0xD0	; 208
    19b0:	0e 94 16 14 	call	0x282c	; 0x282c <serial_writechar>
    19b4:	21 e0       	ldi	r18, 0x01	; 1
    19b6:	30 e0       	ldi	r19, 0x00	; 0
    19b8:	0a 15       	cp	r16, r10
    19ba:	1b 05       	cpc	r17, r11
    19bc:	69 f7       	brne	.-38     	; 0x1998 <uart_writedec32+0xd0>
    19be:	63 96       	adiw	r28, 0x13	; 19
    19c0:	0f b6       	in	r0, 0x3f	; 63
    19c2:	f8 94       	cli
    19c4:	de bf       	out	0x3e, r29	; 62
    19c6:	0f be       	out	0x3f, r0	; 63
    19c8:	cd bf       	out	0x3d, r28	; 61
    19ca:	df 91       	pop	r29
    19cc:	cf 91       	pop	r28
    19ce:	1f 91       	pop	r17
    19d0:	0f 91       	pop	r16
    19d2:	ff 90       	pop	r15
    19d4:	ef 90       	pop	r14
    19d6:	df 90       	pop	r13
    19d8:	cf 90       	pop	r12
    19da:	bf 90       	pop	r11
    19dc:	af 90       	pop	r10
    19de:	9f 90       	pop	r9
    19e0:	8f 90       	pop	r8
    19e2:	7f 90       	pop	r7
    19e4:	6f 90       	pop	r6
    19e6:	5f 90       	pop	r5
    19e8:	4f 90       	pop	r4
    19ea:	3f 90       	pop	r3
    19ec:	2f 90       	pop	r2
    19ee:	08 95       	ret

000019f0 <uart_is_connected>:
    19f0:	0c 94 ec 13 	jmp	0x27d8	; 0x27d8 <serial_isconnected>

000019f4 <uart_is_packet_available>:
    19f4:	0c 94 13 14 	jmp	0x2826	; 0x2826 <serial_is_packet_ready>

000019f8 <uart_readpacket>:
    19f8:	ff 92       	push	r15
    19fa:	0f 93       	push	r16
    19fc:	1f 93       	push	r17
    19fe:	cf 93       	push	r28
    1a00:	df 93       	push	r29
    1a02:	ec 01       	movw	r28, r24
    1a04:	06 2f       	mov	r16, r22
    1a06:	f7 2e       	mov	r15, r23
    1a08:	18 82       	st	Y, r1
    1a0a:	0e 94 ec 13 	call	0x27d8	; 0x27d8 <serial_isconnected>
    1a0e:	10 e0       	ldi	r17, 0x00	; 0
    1a10:	88 23       	and	r24, r24
    1a12:	d9 f0       	breq	.+54     	; 0x1a4a <uart_readpacket+0x52>
    1a14:	0e 94 c0 13 	call	0x2780	; 0x2780 <serial_rxchars>
    1a18:	88 23       	and	r24, r24
    1a1a:	b9 f0       	breq	.+46     	; 0x1a4a <uart_readpacket+0x52>
    1a1c:	0e 94 c7 13 	call	0x278e	; 0x278e <serial_popchar>
    1a20:	80 32       	cpi	r24, 0x20	; 32
    1a22:	10 f0       	brcs	.+4      	; 0x1a28 <uart_readpacket+0x30>
    1a24:	89 93       	st	Y+, r24
    1a26:	1f 5f       	subi	r17, 0xFF	; 255
    1a28:	e0 2f       	mov	r30, r16
    1a2a:	ff 2d       	mov	r31, r15
    1a2c:	48 2f       	mov	r20, r24
    1a2e:	50 e0       	ldi	r21, 0x00	; 0
    1a30:	21 91       	ld	r18, Z+
    1a32:	22 23       	and	r18, r18
    1a34:	39 f0       	breq	.+14     	; 0x1a44 <uart_readpacket+0x4c>
    1a36:	02 2e       	mov	r0, r18
    1a38:	00 0c       	add	r0, r0
    1a3a:	33 0b       	sbc	r19, r19
    1a3c:	42 17       	cp	r20, r18
    1a3e:	53 07       	cpc	r21, r19
    1a40:	b9 f7       	brne	.-18     	; 0x1a30 <uart_readpacket+0x38>
    1a42:	02 c0       	rjmp	.+4      	; 0x1a48 <uart_readpacket+0x50>
    1a44:	8d 30       	cpi	r24, 0x0D	; 13
    1a46:	51 f7       	brne	.-44     	; 0x1a1c <uart_readpacket+0x24>
    1a48:	18 82       	st	Y, r1
    1a4a:	81 2f       	mov	r24, r17
    1a4c:	df 91       	pop	r29
    1a4e:	cf 91       	pop	r28
    1a50:	1f 91       	pop	r17
    1a52:	0f 91       	pop	r16
    1a54:	ff 90       	pop	r15
    1a56:	08 95       	ret

00001a58 <uart_writeip>:
    1a58:	0f 93       	push	r16
    1a5a:	1f 93       	push	r17
    1a5c:	cf 93       	push	r28
    1a5e:	df 93       	push	r29
    1a60:	8c 01       	movw	r16, r24
    1a62:	ec 01       	movw	r28, r24
    1a64:	69 91       	ld	r22, Y+
    1a66:	70 e0       	ldi	r23, 0x00	; 0
    1a68:	80 e0       	ldi	r24, 0x00	; 0
    1a6a:	90 e0       	ldi	r25, 0x00	; 0
    1a6c:	0e 94 64 0c 	call	0x18c8	; 0x18c8 <uart_writedec32>
    1a70:	0c 5f       	subi	r16, 0xFC	; 252
    1a72:	1f 4f       	sbci	r17, 0xFF	; 255
    1a74:	8e e2       	ldi	r24, 0x2E	; 46
    1a76:	0e 94 16 14 	call	0x282c	; 0x282c <serial_writechar>
    1a7a:	69 91       	ld	r22, Y+
    1a7c:	70 e0       	ldi	r23, 0x00	; 0
    1a7e:	80 e0       	ldi	r24, 0x00	; 0
    1a80:	90 e0       	ldi	r25, 0x00	; 0
    1a82:	0e 94 64 0c 	call	0x18c8	; 0x18c8 <uart_writedec32>
    1a86:	c0 17       	cp	r28, r16
    1a88:	d1 07       	cpc	r29, r17
    1a8a:	a1 f7       	brne	.-24     	; 0x1a74 <uart_writeip+0x1c>
    1a8c:	80 e0       	ldi	r24, 0x00	; 0
    1a8e:	92 e0       	ldi	r25, 0x02	; 2
    1a90:	df 91       	pop	r29
    1a92:	cf 91       	pop	r28
    1a94:	1f 91       	pop	r17
    1a96:	0f 91       	pop	r16
    1a98:	0c 94 36 0c 	jmp	0x186c	; 0x186c <uart_writestr>

00001a9c <write_packet_string>:
    1a9c:	cf 93       	push	r28
    1a9e:	df 93       	push	r29
    1aa0:	ec 01       	movw	r28, r24
    1aa2:	82 e2       	ldi	r24, 0x22	; 34
    1aa4:	0e 94 34 0c 	call	0x1868	; 0x1868 <uart_writechar>
    1aa8:	ce 01       	movw	r24, r28
    1aaa:	0e 94 36 0c 	call	0x186c	; 0x186c <uart_writestr>
    1aae:	82 e2       	ldi	r24, 0x22	; 34
    1ab0:	df 91       	pop	r29
    1ab2:	cf 91       	pop	r28
    1ab4:	0c 94 34 0c 	jmp	0x1868	; 0x1868 <uart_writechar>

00001ab8 <send_error_response>:
    1ab8:	89 ef       	ldi	r24, 0xF9	; 249
    1aba:	91 e0       	ldi	r25, 0x01	; 1
    1abc:	0c 94 36 0c 	jmp	0x186c	; 0x186c <uart_writestr>

00001ac0 <strtoi.constprop.2>:
    1ac0:	dc 01       	movw	r26, r24
    1ac2:	80 91 5f 04 	lds	r24, 0x045F	; 0x80045f <packet_buf>
    1ac6:	8d 32       	cpi	r24, 0x2D	; 45
    1ac8:	29 f4       	brne	.+10     	; 0x1ad4 <strtoi.constprop.2+0x14>
    1aca:	8f ef       	ldi	r24, 0xFF	; 255
    1acc:	9f ef       	ldi	r25, 0xFF	; 255
    1ace:	e0 e6       	ldi	r30, 0x60	; 96
    1ad0:	f4 e0       	ldi	r31, 0x04	; 4
    1ad2:	04 c0       	rjmp	.+8      	; 0x1adc <strtoi.constprop.2+0x1c>
    1ad4:	81 e0       	ldi	r24, 0x01	; 1
    1ad6:	90 e0       	ldi	r25, 0x00	; 0
    1ad8:	ef e5       	ldi	r30, 0x5F	; 95
    1ada:	f4 e0       	ldi	r31, 0x04	; 4
    1adc:	11 96       	adiw	r26, 0x01	; 1
    1ade:	1c 92       	st	X, r1
    1ae0:	1e 92       	st	-X, r1
    1ae2:	6a e0       	ldi	r22, 0x0A	; 10
    1ae4:	40 81       	ld	r20, Z
    1ae6:	2d 91       	ld	r18, X+
    1ae8:	3c 91       	ld	r19, X
    1aea:	11 97       	sbiw	r26, 0x01	; 1
    1aec:	44 23       	and	r20, r20
    1aee:	c1 f0       	breq	.+48     	; 0x1b20 <strtoi.constprop.2+0x60>
    1af0:	62 9f       	mul	r22, r18
    1af2:	a0 01       	movw	r20, r0
    1af4:	63 9f       	mul	r22, r19
    1af6:	50 0d       	add	r21, r0
    1af8:	11 24       	eor	r1, r1
    1afa:	11 96       	adiw	r26, 0x01	; 1
    1afc:	5c 93       	st	X, r21
    1afe:	4e 93       	st	-X, r20
    1b00:	21 91       	ld	r18, Z+
    1b02:	30 ed       	ldi	r19, 0xD0	; 208
    1b04:	32 0f       	add	r19, r18
    1b06:	3a 30       	cpi	r19, 0x0A	; 10
    1b08:	b8 f4       	brcc	.+46     	; 0x1b38 <strtoi.constprop.2+0x78>
    1b0a:	02 2e       	mov	r0, r18
    1b0c:	00 0c       	add	r0, r0
    1b0e:	33 0b       	sbc	r19, r19
    1b10:	20 53       	subi	r18, 0x30	; 48
    1b12:	31 09       	sbc	r19, r1
    1b14:	24 0f       	add	r18, r20
    1b16:	35 1f       	adc	r19, r21
    1b18:	11 96       	adiw	r26, 0x01	; 1
    1b1a:	3c 93       	st	X, r19
    1b1c:	2e 93       	st	-X, r18
    1b1e:	e2 cf       	rjmp	.-60     	; 0x1ae4 <strtoi.constprop.2+0x24>
    1b20:	28 9f       	mul	r18, r24
    1b22:	a0 01       	movw	r20, r0
    1b24:	29 9f       	mul	r18, r25
    1b26:	50 0d       	add	r21, r0
    1b28:	38 9f       	mul	r19, r24
    1b2a:	50 0d       	add	r21, r0
    1b2c:	11 24       	eor	r1, r1
    1b2e:	4d 93       	st	X+, r20
    1b30:	5c 93       	st	X, r21
    1b32:	81 e0       	ldi	r24, 0x01	; 1
    1b34:	90 e0       	ldi	r25, 0x00	; 0
    1b36:	08 95       	ret
    1b38:	80 e0       	ldi	r24, 0x00	; 0
    1b3a:	90 e0       	ldi	r25, 0x00	; 0
    1b3c:	08 95       	ret

00001b3e <uartsocket_writechar>:
    1b3e:	0c 94 34 0c 	jmp	0x1868	; 0x1868 <uart_writechar>

00001b42 <uartsocket_writestr>:
    1b42:	0c 94 36 0c 	jmp	0x186c	; 0x186c <uart_writestr>

00001b46 <uartsocket_writehex8>:
    1b46:	0c 94 42 0c 	jmp	0x1884	; 0x1884 <uart_writehex8>

00001b4a <uartsocket_writehex16>:
    1b4a:	0c 94 5b 0c 	jmp	0x18b6	; 0x18b6 <uart_writehex16>

00001b4e <uartsocket_writedec32>:
    1b4e:	0c 94 64 0c 	jmp	0x18c8	; 0x18c8 <uart_writedec32>

00001b52 <uartsocket_is_connected>:
    1b52:	0c 94 ec 13 	jmp	0x27d8	; 0x27d8 <serial_isconnected>

00001b56 <uartsocket_is_packet_available>:
    1b56:	0c 94 13 14 	jmp	0x2826	; 0x2826 <serial_is_packet_ready>

00001b5a <uartsocket_readpacket>:
    1b5a:	ff 92       	push	r15
    1b5c:	0f 93       	push	r16
    1b5e:	1f 93       	push	r17
    1b60:	cf 93       	push	r28
    1b62:	df 93       	push	r29
    1b64:	ec 01       	movw	r28, r24
    1b66:	06 2f       	mov	r16, r22
    1b68:	f7 2e       	mov	r15, r23
    1b6a:	18 82       	st	Y, r1
    1b6c:	0e 94 ec 13 	call	0x27d8	; 0x27d8 <serial_isconnected>
    1b70:	10 e0       	ldi	r17, 0x00	; 0
    1b72:	88 23       	and	r24, r24
    1b74:	d9 f0       	breq	.+54     	; 0x1bac <uartsocket_readpacket+0x52>
    1b76:	0e 94 c0 13 	call	0x2780	; 0x2780 <serial_rxchars>
    1b7a:	88 23       	and	r24, r24
    1b7c:	b9 f0       	breq	.+46     	; 0x1bac <uartsocket_readpacket+0x52>
    1b7e:	0e 94 c7 13 	call	0x278e	; 0x278e <serial_popchar>
    1b82:	80 32       	cpi	r24, 0x20	; 32
    1b84:	10 f0       	brcs	.+4      	; 0x1b8a <uartsocket_readpacket+0x30>
    1b86:	89 93       	st	Y+, r24
    1b88:	1f 5f       	subi	r17, 0xFF	; 255
    1b8a:	e0 2f       	mov	r30, r16
    1b8c:	ff 2d       	mov	r31, r15
    1b8e:	48 2f       	mov	r20, r24
    1b90:	50 e0       	ldi	r21, 0x00	; 0
    1b92:	21 91       	ld	r18, Z+
    1b94:	22 23       	and	r18, r18
    1b96:	39 f0       	breq	.+14     	; 0x1ba6 <uartsocket_readpacket+0x4c>
    1b98:	02 2e       	mov	r0, r18
    1b9a:	00 0c       	add	r0, r0
    1b9c:	33 0b       	sbc	r19, r19
    1b9e:	42 17       	cp	r20, r18
    1ba0:	53 07       	cpc	r21, r19
    1ba2:	b9 f7       	brne	.-18     	; 0x1b92 <uartsocket_readpacket+0x38>
    1ba4:	02 c0       	rjmp	.+4      	; 0x1baa <uartsocket_readpacket+0x50>
    1ba6:	8d 30       	cpi	r24, 0x0D	; 13
    1ba8:	51 f7       	brne	.-44     	; 0x1b7e <uartsocket_readpacket+0x24>
    1baa:	18 82       	st	Y, r1
    1bac:	81 2f       	mov	r24, r17
    1bae:	df 91       	pop	r29
    1bb0:	cf 91       	pop	r28
    1bb2:	1f 91       	pop	r17
    1bb4:	0f 91       	pop	r16
    1bb6:	ff 90       	pop	r15
    1bb8:	08 95       	ret

00001bba <flush_packet>:
    1bba:	63 e0       	ldi	r22, 0x03	; 3
    1bbc:	72 e0       	ldi	r23, 0x02	; 2
    1bbe:	8f e5       	ldi	r24, 0x5F	; 95
    1bc0:	94 e0       	ldi	r25, 0x04	; 4
    1bc2:	0e 94 ad 0d 	call	0x1b5a	; 0x1b5a <uartsocket_readpacket>
    1bc6:	88 23       	and	r24, r24
    1bc8:	49 f0       	breq	.+18     	; 0x1bdc <flush_packet+0x22>
    1bca:	e8 2f       	mov	r30, r24
    1bcc:	f0 e0       	ldi	r31, 0x00	; 0
    1bce:	e2 5a       	subi	r30, 0xA2	; 162
    1bd0:	fb 4f       	sbci	r31, 0xFB	; 251
    1bd2:	80 81       	ld	r24, Z
    1bd4:	8f 32       	cpi	r24, 0x2F	; 47
    1bd6:	89 f3       	breq	.-30     	; 0x1bba <flush_packet>
    1bd8:	80 32       	cpi	r24, 0x20	; 32
    1bda:	79 f3       	breq	.-34     	; 0x1bba <flush_packet>
    1bdc:	08 95       	ret

00001bde <parse_and_send_response>:
    1bde:	0f 93       	push	r16
    1be0:	1f 93       	push	r17
    1be2:	cf 93       	push	r28
    1be4:	df 93       	push	r29
    1be6:	00 d0       	rcall	.+0      	; 0x1be8 <parse_and_send_response+0xa>
    1be8:	00 d0       	rcall	.+0      	; 0x1bea <parse_and_send_response+0xc>
    1bea:	1f 92       	push	r1
    1bec:	cd b7       	in	r28, 0x3d	; 61
    1bee:	de b7       	in	r29, 0x3e	; 62
    1bf0:	63 e0       	ldi	r22, 0x03	; 3
    1bf2:	72 e0       	ldi	r23, 0x02	; 2
    1bf4:	8f e5       	ldi	r24, 0x5F	; 95
    1bf6:	94 e0       	ldi	r25, 0x04	; 4
    1bf8:	0e 94 ad 0d 	call	0x1b5a	; 0x1b5a <uartsocket_readpacket>
    1bfc:	66 e0       	ldi	r22, 0x06	; 6
    1bfe:	72 e0       	ldi	r23, 0x02	; 2
    1c00:	8f e5       	ldi	r24, 0x5F	; 95
    1c02:	94 e0       	ldi	r25, 0x04	; 4
    1c04:	0e 94 e5 10 	call	0x21ca	; 0x21ca <str_cmp>
    1c08:	89 2b       	or	r24, r25
    1c0a:	09 f0       	breq	.+2      	; 0x1c0e <parse_and_send_response+0x30>
    1c0c:	bb c1       	rjmp	.+886    	; 0x1f84 <parse_and_send_response+0x3a6>
    1c0e:	63 e0       	ldi	r22, 0x03	; 3
    1c10:	72 e0       	ldi	r23, 0x02	; 2
    1c12:	8f e5       	ldi	r24, 0x5F	; 95
    1c14:	94 e0       	ldi	r25, 0x04	; 4
    1c16:	0e 94 ad 0d 	call	0x1b5a	; 0x1b5a <uartsocket_readpacket>
    1c1a:	61 e8       	ldi	r22, 0x81	; 129
    1c1c:	73 e0       	ldi	r23, 0x03	; 3
    1c1e:	8f e5       	ldi	r24, 0x5F	; 95
    1c20:	94 e0       	ldi	r25, 0x04	; 4
    1c22:	0e 94 e5 10 	call	0x21ca	; 0x21ca <str_cmp>
    1c26:	89 2b       	or	r24, r25
    1c28:	09 f0       	breq	.+2      	; 0x1c2c <parse_and_send_response+0x4e>
    1c2a:	81 c2       	rjmp	.+1282   	; 0x212e <parse_and_send_response+0x550>
    1c2c:	63 e0       	ldi	r22, 0x03	; 3
    1c2e:	72 e0       	ldi	r23, 0x02	; 2
    1c30:	8f e5       	ldi	r24, 0x5F	; 95
    1c32:	94 e0       	ldi	r25, 0x04	; 4
    1c34:	0e 94 ad 0d 	call	0x1b5a	; 0x1b5a <uartsocket_readpacket>
    1c38:	6b e0       	ldi	r22, 0x0B	; 11
    1c3a:	72 e0       	ldi	r23, 0x02	; 2
    1c3c:	8f e5       	ldi	r24, 0x5F	; 95
    1c3e:	94 e0       	ldi	r25, 0x04	; 4
    1c40:	0e 94 e5 10 	call	0x21ca	; 0x21ca <str_cmp>
    1c44:	89 2b       	or	r24, r25
    1c46:	09 f0       	breq	.+2      	; 0x1c4a <parse_and_send_response+0x6c>
    1c48:	72 c2       	rjmp	.+1252   	; 0x212e <parse_and_send_response+0x550>
    1c4a:	8e e1       	ldi	r24, 0x1E	; 30
    1c4c:	93 e0       	ldi	r25, 0x03	; 3
    1c4e:	0e 94 36 0c 	call	0x186c	; 0x186c <uart_writestr>
    1c52:	80 e0       	ldi	r24, 0x00	; 0
    1c54:	92 e0       	ldi	r25, 0x02	; 2
    1c56:	0e 94 36 0c 	call	0x186c	; 0x186c <uart_writestr>
    1c5a:	82 e1       	ldi	r24, 0x12	; 18
    1c5c:	92 e0       	ldi	r25, 0x02	; 2
    1c5e:	0e 94 36 0c 	call	0x186c	; 0x186c <uart_writestr>
    1c62:	80 e0       	ldi	r24, 0x00	; 0
    1c64:	92 e0       	ldi	r25, 0x02	; 2
    1c66:	0e 94 36 0c 	call	0x186c	; 0x186c <uart_writestr>
    1c6a:	8c e1       	ldi	r24, 0x1C	; 28
    1c6c:	92 e0       	ldi	r25, 0x02	; 2
    1c6e:	0e 94 36 0c 	call	0x186c	; 0x186c <uart_writestr>
    1c72:	85 e0       	ldi	r24, 0x05	; 5
    1c74:	95 e0       	ldi	r25, 0x05	; 5
    1c76:	0e 94 4e 0d 	call	0x1a9c	; 0x1a9c <write_packet_string>
    1c7a:	8c e2       	ldi	r24, 0x2C	; 44
    1c7c:	0e 94 34 0c 	call	0x1868	; 0x1868 <uart_writechar>
    1c80:	80 e0       	ldi	r24, 0x00	; 0
    1c82:	92 e0       	ldi	r25, 0x02	; 2
    1c84:	0e 94 36 0c 	call	0x186c	; 0x186c <uart_writestr>
    1c88:	89 e2       	ldi	r24, 0x29	; 41
    1c8a:	92 e0       	ldi	r25, 0x02	; 2
    1c8c:	0e 94 36 0c 	call	0x186c	; 0x186c <uart_writestr>
    1c90:	81 e1       	ldi	r24, 0x11	; 17
    1c92:	95 e0       	ldi	r25, 0x05	; 5
    1c94:	0e 94 4e 0d 	call	0x1a9c	; 0x1a9c <write_packet_string>
    1c98:	8c e2       	ldi	r24, 0x2C	; 44
    1c9a:	0e 94 34 0c 	call	0x1868	; 0x1868 <uart_writechar>
    1c9e:	80 e0       	ldi	r24, 0x00	; 0
    1ca0:	92 e0       	ldi	r25, 0x02	; 2
    1ca2:	0e 94 36 0c 	call	0x186c	; 0x186c <uart_writestr>
    1ca6:	8d e3       	ldi	r24, 0x3D	; 61
    1ca8:	92 e0       	ldi	r25, 0x02	; 2
    1caa:	0e 94 36 0c 	call	0x186c	; 0x186c <uart_writestr>
    1cae:	8d e1       	ldi	r24, 0x1D	; 29
    1cb0:	95 e0       	ldi	r25, 0x05	; 5
    1cb2:	0e 94 4e 0d 	call	0x1a9c	; 0x1a9c <write_packet_string>
    1cb6:	8c e2       	ldi	r24, 0x2C	; 44
    1cb8:	0e 94 34 0c 	call	0x1868	; 0x1868 <uart_writechar>
    1cbc:	80 e0       	ldi	r24, 0x00	; 0
    1cbe:	92 e0       	ldi	r25, 0x02	; 2
    1cc0:	0e 94 36 0c 	call	0x186c	; 0x186c <uart_writestr>
    1cc4:	82 e5       	ldi	r24, 0x52	; 82
    1cc6:	92 e0       	ldi	r25, 0x02	; 2
    1cc8:	0e 94 36 0c 	call	0x186c	; 0x186c <uart_writestr>
    1ccc:	60 91 29 05 	lds	r22, 0x0529	; 0x800529 <vpd+0x28>
    1cd0:	70 91 2a 05 	lds	r23, 0x052A	; 0x80052a <vpd+0x29>
    1cd4:	80 91 2b 05 	lds	r24, 0x052B	; 0x80052b <vpd+0x2a>
    1cd8:	90 91 2c 05 	lds	r25, 0x052C	; 0x80052c <vpd+0x2b>
    1cdc:	0e 94 f3 09 	call	0x13e6	; 0x13e6 <rtc_num2datestr>
    1ce0:	8c 01       	movw	r16, r24
    1ce2:	fc 01       	movw	r30, r24
    1ce4:	12 86       	std	Z+10, r1	; 0x0a
    1ce6:	82 e2       	ldi	r24, 0x22	; 34
    1ce8:	0e 94 34 0c 	call	0x1868	; 0x1868 <uart_writechar>
    1cec:	c8 01       	movw	r24, r16
    1cee:	0e 94 36 0c 	call	0x186c	; 0x186c <uart_writestr>
    1cf2:	82 e2       	ldi	r24, 0x22	; 34
    1cf4:	0e 94 34 0c 	call	0x1868	; 0x1868 <uart_writechar>
    1cf8:	8c e2       	ldi	r24, 0x2C	; 44
    1cfa:	0e 94 34 0c 	call	0x1868	; 0x1868 <uart_writechar>
    1cfe:	80 e0       	ldi	r24, 0x00	; 0
    1d00:	92 e0       	ldi	r25, 0x02	; 2
    1d02:	0e 94 36 0c 	call	0x186c	; 0x186c <uart_writestr>
    1d06:	8a e6       	ldi	r24, 0x6A	; 106
    1d08:	92 e0       	ldi	r25, 0x02	; 2
    1d0a:	0e 94 36 0c 	call	0x186c	; 0x186c <uart_writestr>
    1d0e:	80 91 2d 05 	lds	r24, 0x052D	; 0x80052d <vpd+0x2c>
    1d12:	0e 94 42 0c 	call	0x1884	; 0x1884 <uart_writehex8>
    1d16:	0e e2       	ldi	r16, 0x2E	; 46
    1d18:	15 e0       	ldi	r17, 0x05	; 5
    1d1a:	8a e3       	ldi	r24, 0x3A	; 58
    1d1c:	0e 94 34 0c 	call	0x1868	; 0x1868 <uart_writechar>
    1d20:	f8 01       	movw	r30, r16
    1d22:	81 91       	ld	r24, Z+
    1d24:	8f 01       	movw	r16, r30
    1d26:	0e 94 42 0c 	call	0x1884	; 0x1884 <uart_writehex8>
    1d2a:	f5 e0       	ldi	r31, 0x05	; 5
    1d2c:	03 33       	cpi	r16, 0x33	; 51
    1d2e:	1f 07       	cpc	r17, r31
    1d30:	a1 f7       	brne	.-24     	; 0x1d1a <parse_and_send_response+0x13c>
    1d32:	8e e7       	ldi	r24, 0x7E	; 126
    1d34:	92 e0       	ldi	r25, 0x02	; 2
    1d36:	0e 94 36 0c 	call	0x186c	; 0x186c <uart_writestr>
    1d3a:	80 e0       	ldi	r24, 0x00	; 0
    1d3c:	92 e0       	ldi	r25, 0x02	; 2
    1d3e:	0e 94 36 0c 	call	0x186c	; 0x186c <uart_writestr>
    1d42:	81 e8       	ldi	r24, 0x81	; 129
    1d44:	92 e0       	ldi	r25, 0x02	; 2
    1d46:	0e 94 36 0c 	call	0x186c	; 0x186c <uart_writestr>
    1d4a:	83 e3       	ldi	r24, 0x33	; 51
    1d4c:	95 e0       	ldi	r25, 0x05	; 5
    1d4e:	0e 94 4e 0d 	call	0x1a9c	; 0x1a9c <write_packet_string>
    1d52:	80 e0       	ldi	r24, 0x00	; 0
    1d54:	92 e0       	ldi	r25, 0x02	; 2
    1d56:	0e 94 36 0c 	call	0x186c	; 0x186c <uart_writestr>
    1d5a:	81 e4       	ldi	r24, 0x41	; 65
    1d5c:	93 e0       	ldi	r25, 0x03	; 3
    1d5e:	0e 94 36 0c 	call	0x186c	; 0x186c <uart_writestr>
    1d62:	80 e0       	ldi	r24, 0x00	; 0
    1d64:	92 e0       	ldi	r25, 0x02	; 2
    1d66:	0e 94 36 0c 	call	0x186c	; 0x186c <uart_writestr>
    1d6a:	85 e9       	ldi	r24, 0x95	; 149
    1d6c:	92 e0       	ldi	r25, 0x02	; 2
    1d6e:	0e 94 36 0c 	call	0x186c	; 0x186c <uart_writestr>
    1d72:	60 91 aa 04 	lds	r22, 0x04AA	; 0x8004aa <config+0x4>
    1d76:	70 91 ab 04 	lds	r23, 0x04AB	; 0x8004ab <config+0x5>
    1d7a:	07 2e       	mov	r0, r23
    1d7c:	00 0c       	add	r0, r0
    1d7e:	88 0b       	sbc	r24, r24
    1d80:	99 0b       	sbc	r25, r25
    1d82:	0e 94 64 0c 	call	0x18c8	; 0x18c8 <uart_writedec32>
    1d86:	8c e2       	ldi	r24, 0x2C	; 44
    1d88:	0e 94 34 0c 	call	0x1868	; 0x1868 <uart_writechar>
    1d8c:	80 e0       	ldi	r24, 0x00	; 0
    1d8e:	92 e0       	ldi	r25, 0x02	; 2
    1d90:	0e 94 36 0c 	call	0x186c	; 0x186c <uart_writestr>
    1d94:	83 ea       	ldi	r24, 0xA3	; 163
    1d96:	92 e0       	ldi	r25, 0x02	; 2
    1d98:	0e 94 36 0c 	call	0x186c	; 0x186c <uart_writestr>
    1d9c:	60 91 ac 04 	lds	r22, 0x04AC	; 0x8004ac <config+0x6>
    1da0:	70 91 ad 04 	lds	r23, 0x04AD	; 0x8004ad <config+0x7>
    1da4:	07 2e       	mov	r0, r23
    1da6:	00 0c       	add	r0, r0
    1da8:	88 0b       	sbc	r24, r24
    1daa:	99 0b       	sbc	r25, r25
    1dac:	0e 94 64 0c 	call	0x18c8	; 0x18c8 <uart_writedec32>
    1db0:	8c e2       	ldi	r24, 0x2C	; 44
    1db2:	0e 94 34 0c 	call	0x1868	; 0x1868 <uart_writechar>
    1db6:	80 e0       	ldi	r24, 0x00	; 0
    1db8:	92 e0       	ldi	r25, 0x02	; 2
    1dba:	0e 94 36 0c 	call	0x186c	; 0x186c <uart_writestr>
    1dbe:	81 eb       	ldi	r24, 0xB1	; 177
    1dc0:	92 e0       	ldi	r25, 0x02	; 2
    1dc2:	0e 94 36 0c 	call	0x186c	; 0x186c <uart_writestr>
    1dc6:	60 91 ae 04 	lds	r22, 0x04AE	; 0x8004ae <config+0x8>
    1dca:	70 91 af 04 	lds	r23, 0x04AF	; 0x8004af <config+0x9>
    1dce:	07 2e       	mov	r0, r23
    1dd0:	00 0c       	add	r0, r0
    1dd2:	88 0b       	sbc	r24, r24
    1dd4:	99 0b       	sbc	r25, r25
    1dd6:	0e 94 64 0c 	call	0x18c8	; 0x18c8 <uart_writedec32>
    1dda:	8c e2       	ldi	r24, 0x2C	; 44
    1ddc:	0e 94 34 0c 	call	0x1868	; 0x1868 <uart_writechar>
    1de0:	80 e0       	ldi	r24, 0x00	; 0
    1de2:	92 e0       	ldi	r25, 0x02	; 2
    1de4:	0e 94 36 0c 	call	0x186c	; 0x186c <uart_writestr>
    1de8:	8f eb       	ldi	r24, 0xBF	; 191
    1dea:	92 e0       	ldi	r25, 0x02	; 2
    1dec:	0e 94 36 0c 	call	0x186c	; 0x186c <uart_writestr>
    1df0:	60 91 b0 04 	lds	r22, 0x04B0	; 0x8004b0 <config+0xa>
    1df4:	70 91 b1 04 	lds	r23, 0x04B1	; 0x8004b1 <config+0xb>
    1df8:	07 2e       	mov	r0, r23
    1dfa:	00 0c       	add	r0, r0
    1dfc:	88 0b       	sbc	r24, r24
    1dfe:	99 0b       	sbc	r25, r25
    1e00:	0e 94 64 0c 	call	0x18c8	; 0x18c8 <uart_writedec32>
    1e04:	8c e2       	ldi	r24, 0x2C	; 44
    1e06:	0e 94 34 0c 	call	0x1868	; 0x1868 <uart_writechar>
    1e0a:	80 e0       	ldi	r24, 0x00	; 0
    1e0c:	92 e0       	ldi	r25, 0x02	; 2
    1e0e:	0e 94 36 0c 	call	0x186c	; 0x186c <uart_writestr>
    1e12:	8d ec       	ldi	r24, 0xCD	; 205
    1e14:	92 e0       	ldi	r25, 0x02	; 2
    1e16:	0e 94 36 0c 	call	0x186c	; 0x186c <uart_writestr>
    1e1a:	60 91 00 01 	lds	r22, 0x0100	; 0x800100 <__data_start>
    1e1e:	70 91 01 01 	lds	r23, 0x0101	; 0x800101 <__data_start+0x1>
    1e22:	07 2e       	mov	r0, r23
    1e24:	00 0c       	add	r0, r0
    1e26:	88 0b       	sbc	r24, r24
    1e28:	99 0b       	sbc	r25, r25
    1e2a:	0e 94 64 0c 	call	0x18c8	; 0x18c8 <uart_writedec32>
    1e2e:	8c e2       	ldi	r24, 0x2C	; 44
    1e30:	0e 94 34 0c 	call	0x1868	; 0x1868 <uart_writechar>
    1e34:	80 e0       	ldi	r24, 0x00	; 0
    1e36:	92 e0       	ldi	r25, 0x02	; 2
    1e38:	0e 94 36 0c 	call	0x186c	; 0x186c <uart_writestr>
    1e3c:	8e ed       	ldi	r24, 0xDE	; 222
    1e3e:	92 e0       	ldi	r25, 0x02	; 2
    1e40:	0e 94 36 0c 	call	0x186c	; 0x186c <uart_writestr>
    1e44:	80 91 00 01 	lds	r24, 0x0100	; 0x800100 <__data_start>
    1e48:	90 91 01 01 	lds	r25, 0x0101	; 0x800101 <__data_start+0x1>
    1e4c:	20 91 aa 04 	lds	r18, 0x04AA	; 0x8004aa <config+0x4>
    1e50:	30 91 ab 04 	lds	r19, 0x04AB	; 0x8004ab <config+0x5>
    1e54:	82 17       	cp	r24, r18
    1e56:	93 07       	cpc	r25, r19
    1e58:	1c f0       	brlt	.+6      	; 0x1e60 <parse_and_send_response+0x282>
    1e5a:	89 ee       	ldi	r24, 0xE9	; 233
    1e5c:	92 e0       	ldi	r25, 0x02	; 2
    1e5e:	20 c0       	rjmp	.+64     	; 0x1ea0 <parse_and_send_response+0x2c2>
    1e60:	20 91 ac 04 	lds	r18, 0x04AC	; 0x8004ac <config+0x6>
    1e64:	30 91 ad 04 	lds	r19, 0x04AD	; 0x8004ad <config+0x7>
    1e68:	82 17       	cp	r24, r18
    1e6a:	93 07       	cpc	r25, r19
    1e6c:	1c f0       	brlt	.+6      	; 0x1e74 <parse_and_send_response+0x296>
    1e6e:	81 ef       	ldi	r24, 0xF1	; 241
    1e70:	92 e0       	ldi	r25, 0x02	; 2
    1e72:	16 c0       	rjmp	.+44     	; 0x1ea0 <parse_and_send_response+0x2c2>
    1e74:	20 91 b0 04 	lds	r18, 0x04B0	; 0x8004b0 <config+0xa>
    1e78:	30 91 b1 04 	lds	r19, 0x04B1	; 0x8004b1 <config+0xb>
    1e7c:	28 17       	cp	r18, r24
    1e7e:	39 07       	cpc	r19, r25
    1e80:	1c f4       	brge	.+6      	; 0x1e88 <parse_and_send_response+0x2aa>
    1e82:	89 ef       	ldi	r24, 0xF9	; 249
    1e84:	92 e0       	ldi	r25, 0x02	; 2
    1e86:	0c c0       	rjmp	.+24     	; 0x1ea0 <parse_and_send_response+0x2c2>
    1e88:	20 91 ae 04 	lds	r18, 0x04AE	; 0x8004ae <config+0x8>
    1e8c:	30 91 af 04 	lds	r19, 0x04AF	; 0x8004af <config+0x9>
    1e90:	28 17       	cp	r18, r24
    1e92:	39 07       	cpc	r19, r25
    1e94:	1c f4       	brge	.+6      	; 0x1e9c <parse_and_send_response+0x2be>
    1e96:	80 e0       	ldi	r24, 0x00	; 0
    1e98:	93 e0       	ldi	r25, 0x03	; 3
    1e9a:	02 c0       	rjmp	.+4      	; 0x1ea0 <parse_and_send_response+0x2c2>
    1e9c:	88 e0       	ldi	r24, 0x08	; 8
    1e9e:	93 e0       	ldi	r25, 0x03	; 3
    1ea0:	0e 94 36 0c 	call	0x186c	; 0x186c <uart_writestr>
    1ea4:	8c e2       	ldi	r24, 0x2C	; 44
    1ea6:	0e 94 34 0c 	call	0x1868	; 0x1868 <uart_writechar>
    1eaa:	80 e0       	ldi	r24, 0x00	; 0
    1eac:	92 e0       	ldi	r25, 0x02	; 2
    1eae:	0e 94 36 0c 	call	0x186c	; 0x186c <uart_writestr>
    1eb2:	80 e1       	ldi	r24, 0x10	; 16
    1eb4:	93 e0       	ldi	r25, 0x03	; 3
    1eb6:	0e 94 36 0c 	call	0x186c	; 0x186c <uart_writestr>
    1eba:	80 e0       	ldi	r24, 0x00	; 0
    1ebc:	92 e0       	ldi	r25, 0x02	; 2
    1ebe:	0e 94 36 0c 	call	0x186c	; 0x186c <uart_writestr>
    1ec2:	10 e0       	ldi	r17, 0x00	; 0
    1ec4:	0e 94 c1 07 	call	0xf82	; 0xf82 <log_get_num_entries>
    1ec8:	18 17       	cp	r17, r24
    1eca:	08 f0       	brcs	.+2      	; 0x1ece <parse_and_send_response+0x2f0>
    1ecc:	48 c0       	rjmp	.+144    	; 0x1f5e <parse_and_send_response+0x380>
    1ece:	81 2f       	mov	r24, r17
    1ed0:	90 e0       	ldi	r25, 0x00	; 0
    1ed2:	a0 e0       	ldi	r26, 0x00	; 0
    1ed4:	b0 e0       	ldi	r27, 0x00	; 0
    1ed6:	9e 01       	movw	r18, r28
    1ed8:	2b 5f       	subi	r18, 0xFB	; 251
    1eda:	3f 4f       	sbci	r19, 0xFF	; 255
    1edc:	ae 01       	movw	r20, r28
    1ede:	4f 5f       	subi	r20, 0xFF	; 255
    1ee0:	5f 4f       	sbci	r21, 0xFF	; 255
    1ee2:	bc 01       	movw	r22, r24
    1ee4:	cd 01       	movw	r24, r26
    1ee6:	0e 94 da 07 	call	0xfb4	; 0xfb4 <log_get_record>
    1eea:	11 23       	and	r17, r17
    1eec:	39 f0       	breq	.+14     	; 0x1efc <parse_and_send_response+0x31e>
    1eee:	8c e2       	ldi	r24, 0x2C	; 44
    1ef0:	0e 94 34 0c 	call	0x1868	; 0x1868 <uart_writechar>
    1ef4:	80 e0       	ldi	r24, 0x00	; 0
    1ef6:	92 e0       	ldi	r25, 0x02	; 2
    1ef8:	0e 94 36 0c 	call	0x186c	; 0x186c <uart_writestr>
    1efc:	8a e1       	ldi	r24, 0x1A	; 26
    1efe:	93 e0       	ldi	r25, 0x03	; 3
    1f00:	0e 94 36 0c 	call	0x186c	; 0x186c <uart_writestr>
    1f04:	80 e0       	ldi	r24, 0x00	; 0
    1f06:	92 e0       	ldi	r25, 0x02	; 2
    1f08:	0e 94 36 0c 	call	0x186c	; 0x186c <uart_writestr>
    1f0c:	80 e2       	ldi	r24, 0x20	; 32
    1f0e:	93 e0       	ldi	r25, 0x03	; 3
    1f10:	0e 94 36 0c 	call	0x186c	; 0x186c <uart_writestr>
    1f14:	82 e2       	ldi	r24, 0x22	; 34
    1f16:	0e 94 34 0c 	call	0x1868	; 0x1868 <uart_writechar>
    1f1a:	69 81       	ldd	r22, Y+1	; 0x01
    1f1c:	7a 81       	ldd	r23, Y+2	; 0x02
    1f1e:	8b 81       	ldd	r24, Y+3	; 0x03
    1f20:	9c 81       	ldd	r25, Y+4	; 0x04
    1f22:	0e 94 f3 09 	call	0x13e6	; 0x13e6 <rtc_num2datestr>
    1f26:	0e 94 36 0c 	call	0x186c	; 0x186c <uart_writestr>
    1f2a:	82 e2       	ldi	r24, 0x22	; 34
    1f2c:	0e 94 34 0c 	call	0x1868	; 0x1868 <uart_writechar>
    1f30:	8c e2       	ldi	r24, 0x2C	; 44
    1f32:	0e 94 34 0c 	call	0x1868	; 0x1868 <uart_writechar>
    1f36:	83 e3       	ldi	r24, 0x33	; 51
    1f38:	93 e0       	ldi	r25, 0x03	; 3
    1f3a:	0e 94 36 0c 	call	0x186c	; 0x186c <uart_writestr>
    1f3e:	6d 81       	ldd	r22, Y+5	; 0x05
    1f40:	70 e0       	ldi	r23, 0x00	; 0
    1f42:	80 e0       	ldi	r24, 0x00	; 0
    1f44:	90 e0       	ldi	r25, 0x00	; 0
    1f46:	0e 94 64 0c 	call	0x18c8	; 0x18c8 <uart_writedec32>
    1f4a:	80 e0       	ldi	r24, 0x00	; 0
    1f4c:	92 e0       	ldi	r25, 0x02	; 2
    1f4e:	0e 94 36 0c 	call	0x186c	; 0x186c <uart_writestr>
    1f52:	8f e3       	ldi	r24, 0x3F	; 63
    1f54:	93 e0       	ldi	r25, 0x03	; 3
    1f56:	0e 94 36 0c 	call	0x186c	; 0x186c <uart_writestr>
    1f5a:	1f 5f       	subi	r17, 0xFF	; 255
    1f5c:	b3 cf       	rjmp	.-154    	; 0x1ec4 <parse_and_send_response+0x2e6>
    1f5e:	80 e0       	ldi	r24, 0x00	; 0
    1f60:	92 e0       	ldi	r25, 0x02	; 2
    1f62:	0e 94 36 0c 	call	0x186c	; 0x186c <uart_writestr>
    1f66:	85 e4       	ldi	r24, 0x45	; 69
    1f68:	93 e0       	ldi	r25, 0x03	; 3
    1f6a:	0e 94 36 0c 	call	0x186c	; 0x186c <uart_writestr>
    1f6e:	80 e0       	ldi	r24, 0x00	; 0
    1f70:	92 e0       	ldi	r25, 0x02	; 2
    1f72:	0e 94 36 0c 	call	0x186c	; 0x186c <uart_writestr>
    1f76:	83 e4       	ldi	r24, 0x43	; 67
    1f78:	93 e0       	ldi	r25, 0x03	; 3
    1f7a:	0e 94 36 0c 	call	0x186c	; 0x186c <uart_writestr>
    1f7e:	80 e0       	ldi	r24, 0x00	; 0
    1f80:	92 e0       	ldi	r25, 0x02	; 2
    1f82:	17 c1       	rjmp	.+558    	; 0x21b2 <parse_and_send_response+0x5d4>
    1f84:	69 e4       	ldi	r22, 0x49	; 73
    1f86:	73 e0       	ldi	r23, 0x03	; 3
    1f88:	8f e5       	ldi	r24, 0x5F	; 95
    1f8a:	94 e0       	ldi	r25, 0x04	; 4
    1f8c:	0e 94 e5 10 	call	0x21ca	; 0x21ca <str_cmp>
    1f90:	89 2b       	or	r24, r25
    1f92:	09 f0       	breq	.+2      	; 0x1f96 <parse_and_send_response+0x3b8>
    1f94:	d8 c0       	rjmp	.+432    	; 0x2146 <parse_and_send_response+0x568>
    1f96:	63 e0       	ldi	r22, 0x03	; 3
    1f98:	72 e0       	ldi	r23, 0x02	; 2
    1f9a:	8f e5       	ldi	r24, 0x5F	; 95
    1f9c:	94 e0       	ldi	r25, 0x04	; 4
    1f9e:	0e 94 ad 0d 	call	0x1b5a	; 0x1b5a <uartsocket_readpacket>
    1fa2:	61 e8       	ldi	r22, 0x81	; 129
    1fa4:	73 e0       	ldi	r23, 0x03	; 3
    1fa6:	8f e5       	ldi	r24, 0x5F	; 95
    1fa8:	94 e0       	ldi	r25, 0x04	; 4
    1faa:	0e 94 e5 10 	call	0x21ca	; 0x21ca <str_cmp>
    1fae:	89 2b       	or	r24, r25
    1fb0:	09 f0       	breq	.+2      	; 0x1fb4 <parse_and_send_response+0x3d6>
    1fb2:	bd c0       	rjmp	.+378    	; 0x212e <parse_and_send_response+0x550>
    1fb4:	6e e4       	ldi	r22, 0x4E	; 78
    1fb6:	73 e0       	ldi	r23, 0x03	; 3
    1fb8:	8f e5       	ldi	r24, 0x5F	; 95
    1fba:	94 e0       	ldi	r25, 0x04	; 4
    1fbc:	0e 94 ad 0d 	call	0x1b5a	; 0x1b5a <uartsocket_readpacket>
    1fc0:	62 e5       	ldi	r22, 0x52	; 82
    1fc2:	73 e0       	ldi	r23, 0x03	; 3
    1fc4:	8f e5       	ldi	r24, 0x5F	; 95
    1fc6:	94 e0       	ldi	r25, 0x04	; 4
    1fc8:	0e 94 e5 10 	call	0x21ca	; 0x21ca <str_cmp>
    1fcc:	89 2b       	or	r24, r25
    1fce:	89 f5       	brne	.+98     	; 0x2032 <parse_and_send_response+0x454>
    1fd0:	6a e5       	ldi	r22, 0x5A	; 90
    1fd2:	73 e0       	ldi	r23, 0x03	; 3
    1fd4:	8f e5       	ldi	r24, 0x5F	; 95
    1fd6:	94 e0       	ldi	r25, 0x04	; 4
    1fd8:	0e 94 ad 0d 	call	0x1b5a	; 0x1b5a <uartsocket_readpacket>
    1fdc:	6e e5       	ldi	r22, 0x5E	; 94
    1fde:	73 e0       	ldi	r23, 0x03	; 3
    1fe0:	8f e5       	ldi	r24, 0x5F	; 95
    1fe2:	94 e0       	ldi	r25, 0x04	; 4
    1fe4:	0e 94 e5 10 	call	0x21ca	; 0x21ca <str_cmp>
    1fe8:	89 2b       	or	r24, r25
    1fea:	09 f0       	breq	.+2      	; 0x1fee <parse_and_send_response+0x410>
    1fec:	a0 c0       	rjmp	.+320    	; 0x212e <parse_and_send_response+0x550>
    1fee:	63 e0       	ldi	r22, 0x03	; 3
    1ff0:	72 e0       	ldi	r23, 0x02	; 2
    1ff2:	8f e5       	ldi	r24, 0x5F	; 95
    1ff4:	94 e0       	ldi	r25, 0x04	; 4
    1ff6:	0e 94 ad 0d 	call	0x1b5a	; 0x1b5a <uartsocket_readpacket>
    1ffa:	65 e6       	ldi	r22, 0x65	; 101
    1ffc:	73 e0       	ldi	r23, 0x03	; 3
    1ffe:	8f e5       	ldi	r24, 0x5F	; 95
    2000:	94 e0       	ldi	r25, 0x04	; 4
    2002:	0e 94 e5 10 	call	0x21ca	; 0x21ca <str_cmp>
    2006:	89 2b       	or	r24, r25
    2008:	29 f4       	brne	.+10     	; 0x2014 <parse_and_send_response+0x436>
    200a:	8d e6       	ldi	r24, 0x6D	; 109
    200c:	93 e0       	ldi	r25, 0x03	; 3
    200e:	0e 94 36 0c 	call	0x186c	; 0x186c <uart_writestr>
    2012:	8f c0       	rjmp	.+286    	; 0x2132 <parse_and_send_response+0x554>
    2014:	64 e7       	ldi	r22, 0x74	; 116
    2016:	73 e0       	ldi	r23, 0x03	; 3
    2018:	8f e5       	ldi	r24, 0x5F	; 95
    201a:	94 e0       	ldi	r25, 0x04	; 4
    201c:	0e 94 e5 10 	call	0x21ca	; 0x21ca <str_cmp>
    2020:	89 2b       	or	r24, r25
    2022:	09 f0       	breq	.+2      	; 0x2026 <parse_and_send_response+0x448>
    2024:	84 c0       	rjmp	.+264    	; 0x212e <parse_and_send_response+0x550>
    2026:	8d e6       	ldi	r24, 0x6D	; 109
    2028:	93 e0       	ldi	r25, 0x03	; 3
    202a:	0e 94 36 0c 	call	0x186c	; 0x186c <uart_writestr>
    202e:	0e 94 60 03 	call	0x6c0	; 0x6c0 <wdt_force_restart>
    2032:	6b e7       	ldi	r22, 0x7B	; 123
    2034:	73 e0       	ldi	r23, 0x03	; 3
    2036:	8f e5       	ldi	r24, 0x5F	; 95
    2038:	94 e0       	ldi	r25, 0x04	; 4
    203a:	0e 94 e5 10 	call	0x21ca	; 0x21ca <str_cmp>
    203e:	89 2b       	or	r24, r25
    2040:	09 f0       	breq	.+2      	; 0x2044 <parse_and_send_response+0x466>
    2042:	75 c0       	rjmp	.+234    	; 0x212e <parse_and_send_response+0x550>
    2044:	6e e4       	ldi	r22, 0x4E	; 78
    2046:	73 e0       	ldi	r23, 0x03	; 3
    2048:	8f e5       	ldi	r24, 0x5F	; 95
    204a:	94 e0       	ldi	r25, 0x04	; 4
    204c:	0e 94 ad 0d 	call	0x1b5a	; 0x1b5a <uartsocket_readpacket>
    2050:	63 e8       	ldi	r22, 0x83	; 131
    2052:	73 e0       	ldi	r23, 0x03	; 3
    2054:	8f e5       	ldi	r24, 0x5F	; 95
    2056:	94 e0       	ldi	r25, 0x04	; 4
    2058:	0e 94 e5 10 	call	0x21ca	; 0x21ca <str_cmp>
    205c:	89 2b       	or	r24, r25
    205e:	09 f0       	breq	.+2      	; 0x2062 <parse_and_send_response+0x484>
    2060:	66 c0       	rjmp	.+204    	; 0x212e <parse_and_send_response+0x550>
    2062:	6b e8       	ldi	r22, 0x8B	; 139
    2064:	73 e0       	ldi	r23, 0x03	; 3
    2066:	8f e5       	ldi	r24, 0x5F	; 95
    2068:	94 e0       	ldi	r25, 0x04	; 4
    206a:	0e 94 ad 0d 	call	0x1b5a	; 0x1b5a <uartsocket_readpacket>
    206e:	6e e8       	ldi	r22, 0x8E	; 142
    2070:	73 e0       	ldi	r23, 0x03	; 3
    2072:	8f e5       	ldi	r24, 0x5F	; 95
    2074:	94 e0       	ldi	r25, 0x04	; 4
    2076:	0e 94 e5 10 	call	0x21ca	; 0x21ca <str_cmp>
    207a:	89 2b       	or	r24, r25
    207c:	91 f4       	brne	.+36     	; 0x20a2 <parse_and_send_response+0x4c4>
    207e:	63 e0       	ldi	r22, 0x03	; 3
    2080:	72 e0       	ldi	r23, 0x02	; 2
    2082:	8f e5       	ldi	r24, 0x5F	; 95
    2084:	94 e0       	ldi	r25, 0x04	; 4
    2086:	0e 94 ad 0d 	call	0x1b5a	; 0x1b5a <uartsocket_readpacket>
    208a:	ce 01       	movw	r24, r28
    208c:	01 96       	adiw	r24, 0x01	; 1
    208e:	0e 94 60 0d 	call	0x1ac0	; 0x1ac0 <strtoi.constprop.2>
    2092:	89 2b       	or	r24, r25
    2094:	09 f4       	brne	.+2      	; 0x2098 <parse_and_send_response+0x4ba>
    2096:	4b c0       	rjmp	.+150    	; 0x212e <parse_and_send_response+0x550>
    2098:	89 81       	ldd	r24, Y+1	; 0x01
    209a:	9a 81       	ldd	r25, Y+2	; 0x02
    209c:	0e 94 b0 02 	call	0x560	; 0x560 <update_tcrit_hi>
    20a0:	4f c0       	rjmp	.+158    	; 0x2140 <parse_and_send_response+0x562>
    20a2:	68 e9       	ldi	r22, 0x98	; 152
    20a4:	73 e0       	ldi	r23, 0x03	; 3
    20a6:	8f e5       	ldi	r24, 0x5F	; 95
    20a8:	94 e0       	ldi	r25, 0x04	; 4
    20aa:	0e 94 e5 10 	call	0x21ca	; 0x21ca <str_cmp>
    20ae:	89 2b       	or	r24, r25
    20b0:	89 f4       	brne	.+34     	; 0x20d4 <parse_and_send_response+0x4f6>
    20b2:	63 e0       	ldi	r22, 0x03	; 3
    20b4:	72 e0       	ldi	r23, 0x02	; 2
    20b6:	8f e5       	ldi	r24, 0x5F	; 95
    20b8:	94 e0       	ldi	r25, 0x04	; 4
    20ba:	0e 94 ad 0d 	call	0x1b5a	; 0x1b5a <uartsocket_readpacket>
    20be:	ce 01       	movw	r24, r28
    20c0:	01 96       	adiw	r24, 0x01	; 1
    20c2:	0e 94 60 0d 	call	0x1ac0	; 0x1ac0 <strtoi.constprop.2>
    20c6:	89 2b       	or	r24, r25
    20c8:	91 f1       	breq	.+100    	; 0x212e <parse_and_send_response+0x550>
    20ca:	89 81       	ldd	r24, Y+1	; 0x01
    20cc:	9a 81       	ldd	r25, Y+2	; 0x02
    20ce:	0e 94 d9 02 	call	0x5b2	; 0x5b2 <update_twarn_hi>
    20d2:	36 c0       	rjmp	.+108    	; 0x2140 <parse_and_send_response+0x562>
    20d4:	62 ea       	ldi	r22, 0xA2	; 162
    20d6:	73 e0       	ldi	r23, 0x03	; 3
    20d8:	8f e5       	ldi	r24, 0x5F	; 95
    20da:	94 e0       	ldi	r25, 0x04	; 4
    20dc:	0e 94 e5 10 	call	0x21ca	; 0x21ca <str_cmp>
    20e0:	89 2b       	or	r24, r25
    20e2:	89 f4       	brne	.+34     	; 0x2106 <parse_and_send_response+0x528>
    20e4:	63 e0       	ldi	r22, 0x03	; 3
    20e6:	72 e0       	ldi	r23, 0x02	; 2
    20e8:	8f e5       	ldi	r24, 0x5F	; 95
    20ea:	94 e0       	ldi	r25, 0x04	; 4
    20ec:	0e 94 ad 0d 	call	0x1b5a	; 0x1b5a <uartsocket_readpacket>
    20f0:	ce 01       	movw	r24, r28
    20f2:	01 96       	adiw	r24, 0x01	; 1
    20f4:	0e 94 60 0d 	call	0x1ac0	; 0x1ac0 <strtoi.constprop.2>
    20f8:	89 2b       	or	r24, r25
    20fa:	c9 f0       	breq	.+50     	; 0x212e <parse_and_send_response+0x550>
    20fc:	89 81       	ldd	r24, Y+1	; 0x01
    20fe:	9a 81       	ldd	r25, Y+2	; 0x02
    2100:	0e 94 06 03 	call	0x60c	; 0x60c <update_tcrit_lo>
    2104:	1d c0       	rjmp	.+58     	; 0x2140 <parse_and_send_response+0x562>
    2106:	6c ea       	ldi	r22, 0xAC	; 172
    2108:	73 e0       	ldi	r23, 0x03	; 3
    210a:	8f e5       	ldi	r24, 0x5F	; 95
    210c:	94 e0       	ldi	r25, 0x04	; 4
    210e:	0e 94 e5 10 	call	0x21ca	; 0x21ca <str_cmp>
    2112:	89 2b       	or	r24, r25
    2114:	61 f4       	brne	.+24     	; 0x212e <parse_and_send_response+0x550>
    2116:	63 e0       	ldi	r22, 0x03	; 3
    2118:	72 e0       	ldi	r23, 0x02	; 2
    211a:	8f e5       	ldi	r24, 0x5F	; 95
    211c:	94 e0       	ldi	r25, 0x04	; 4
    211e:	0e 94 ad 0d 	call	0x1b5a	; 0x1b5a <uartsocket_readpacket>
    2122:	ce 01       	movw	r24, r28
    2124:	01 96       	adiw	r24, 0x01	; 1
    2126:	0e 94 60 0d 	call	0x1ac0	; 0x1ac0 <strtoi.constprop.2>
    212a:	89 2b       	or	r24, r25
    212c:	29 f4       	brne	.+10     	; 0x2138 <parse_and_send_response+0x55a>
    212e:	0e 94 5c 0d 	call	0x1ab8	; 0x1ab8 <send_error_response>
    2132:	0e 94 dd 0d 	call	0x1bba	; 0x1bba <flush_packet>
    2136:	3f c0       	rjmp	.+126    	; 0x21b6 <parse_and_send_response+0x5d8>
    2138:	89 81       	ldd	r24, Y+1	; 0x01
    213a:	9a 81       	ldd	r25, Y+2	; 0x02
    213c:	0e 94 28 03 	call	0x650	; 0x650 <update_twarn_lo>
    2140:	89 2b       	or	r24, r25
    2142:	a9 f1       	breq	.+106    	; 0x21ae <parse_and_send_response+0x5d0>
    2144:	f4 cf       	rjmp	.-24     	; 0x212e <parse_and_send_response+0x550>
    2146:	66 eb       	ldi	r22, 0xB6	; 182
    2148:	73 e0       	ldi	r23, 0x03	; 3
    214a:	8f e5       	ldi	r24, 0x5F	; 95
    214c:	94 e0       	ldi	r25, 0x04	; 4
    214e:	0e 94 e5 10 	call	0x21ca	; 0x21ca <str_cmp>
    2152:	89 2b       	or	r24, r25
    2154:	61 f7       	brne	.-40     	; 0x212e <parse_and_send_response+0x550>
    2156:	63 e0       	ldi	r22, 0x03	; 3
    2158:	72 e0       	ldi	r23, 0x02	; 2
    215a:	8f e5       	ldi	r24, 0x5F	; 95
    215c:	94 e0       	ldi	r25, 0x04	; 4
    215e:	0e 94 ad 0d 	call	0x1b5a	; 0x1b5a <uartsocket_readpacket>
    2162:	61 e8       	ldi	r22, 0x81	; 129
    2164:	73 e0       	ldi	r23, 0x03	; 3
    2166:	8f e5       	ldi	r24, 0x5F	; 95
    2168:	94 e0       	ldi	r25, 0x04	; 4
    216a:	0e 94 e5 10 	call	0x21ca	; 0x21ca <str_cmp>
    216e:	89 2b       	or	r24, r25
    2170:	f1 f6       	brne	.-68     	; 0x212e <parse_and_send_response+0x550>
    2172:	63 e0       	ldi	r22, 0x03	; 3
    2174:	72 e0       	ldi	r23, 0x02	; 2
    2176:	8f e5       	ldi	r24, 0x5F	; 95
    2178:	94 e0       	ldi	r25, 0x04	; 4
    217a:	0e 94 ad 0d 	call	0x1b5a	; 0x1b5a <uartsocket_readpacket>
    217e:	6b e7       	ldi	r22, 0x7B	; 123
    2180:	73 e0       	ldi	r23, 0x03	; 3
    2182:	8f e5       	ldi	r24, 0x5F	; 95
    2184:	94 e0       	ldi	r25, 0x04	; 4
    2186:	0e 94 e5 10 	call	0x21ca	; 0x21ca <str_cmp>
    218a:	89 2b       	or	r24, r25
    218c:	81 f6       	brne	.-96     	; 0x212e <parse_and_send_response+0x550>
    218e:	63 e0       	ldi	r22, 0x03	; 3
    2190:	72 e0       	ldi	r23, 0x02	; 2
    2192:	8f e5       	ldi	r24, 0x5F	; 95
    2194:	94 e0       	ldi	r25, 0x04	; 4
    2196:	0e 94 ad 0d 	call	0x1b5a	; 0x1b5a <uartsocket_readpacket>
    219a:	6e eb       	ldi	r22, 0xBE	; 190
    219c:	73 e0       	ldi	r23, 0x03	; 3
    219e:	8f e5       	ldi	r24, 0x5F	; 95
    21a0:	94 e0       	ldi	r25, 0x04	; 4
    21a2:	0e 94 e5 10 	call	0x21ca	; 0x21ca <str_cmp>
    21a6:	89 2b       	or	r24, r25
    21a8:	11 f6       	brne	.-124    	; 0x212e <parse_and_send_response+0x550>
    21aa:	0e 94 a4 07 	call	0xf48	; 0xf48 <log_clear>
    21ae:	8d e6       	ldi	r24, 0x6D	; 109
    21b0:	93 e0       	ldi	r25, 0x03	; 3
    21b2:	0e 94 36 0c 	call	0x186c	; 0x186c <uart_writestr>
    21b6:	0f 90       	pop	r0
    21b8:	0f 90       	pop	r0
    21ba:	0f 90       	pop	r0
    21bc:	0f 90       	pop	r0
    21be:	0f 90       	pop	r0
    21c0:	df 91       	pop	r29
    21c2:	cf 91       	pop	r28
    21c4:	1f 91       	pop	r17
    21c6:	0f 91       	pop	r16
    21c8:	08 95       	ret

000021ca <str_cmp>:
    21ca:	dc 01       	movw	r26, r24
    21cc:	fb 01       	movw	r30, r22
    21ce:	9d 91       	ld	r25, X+
    21d0:	99 23       	and	r25, r25
    21d2:	41 f0       	breq	.+16     	; 0x21e4 <str_cmp+0x1a>
    21d4:	81 91       	ld	r24, Z+
    21d6:	89 17       	cp	r24, r25
    21d8:	84 f0       	brlt	.+32     	; 0x21fa <str_cmp+0x30>
    21da:	98 17       	cp	r25, r24
    21dc:	c4 f7       	brge	.-16     	; 0x21ce <str_cmp+0x4>
    21de:	8f ef       	ldi	r24, 0xFF	; 255
    21e0:	9f ef       	ldi	r25, 0xFF	; 255
    21e2:	08 95       	ret
    21e4:	81 e0       	ldi	r24, 0x01	; 1
    21e6:	90 e0       	ldi	r25, 0x00	; 0
    21e8:	20 81       	ld	r18, Z
    21ea:	21 11       	cpse	r18, r1
    21ec:	02 c0       	rjmp	.+4      	; 0x21f2 <str_cmp+0x28>
    21ee:	80 e0       	ldi	r24, 0x00	; 0
    21f0:	90 e0       	ldi	r25, 0x00	; 0
    21f2:	91 95       	neg	r25
    21f4:	81 95       	neg	r24
    21f6:	91 09       	sbc	r25, r1
    21f8:	08 95       	ret
    21fa:	81 e0       	ldi	r24, 0x01	; 1
    21fc:	90 e0       	ldi	r25, 0x00	; 0
    21fe:	08 95       	ret

00002200 <update_checksum>:
    2200:	dc 01       	movw	r26, r24
    2202:	90 e0       	ldi	r25, 0x00	; 0
    2204:	20 e0       	ldi	r18, 0x00	; 0
    2206:	61 50       	subi	r22, 0x01	; 1
    2208:	71 09       	sbc	r23, r1
    220a:	42 2f       	mov	r20, r18
    220c:	50 e0       	ldi	r21, 0x00	; 0
    220e:	fd 01       	movw	r30, r26
    2210:	e4 0f       	add	r30, r20
    2212:	f5 1f       	adc	r31, r21
    2214:	46 17       	cp	r20, r22
    2216:	57 07       	cpc	r21, r23
    2218:	20 f4       	brcc	.+8      	; 0x2222 <update_checksum+0x22>
    221a:	80 81       	ld	r24, Z
    221c:	98 0f       	add	r25, r24
    221e:	2f 5f       	subi	r18, 0xFF	; 255
    2220:	f4 cf       	rjmp	.-24     	; 0x220a <update_checksum+0xa>
    2222:	91 95       	neg	r25
    2224:	90 83       	st	Z, r25
    2226:	08 95       	ret

00002228 <random_seed>:
    2228:	61 15       	cp	r22, r1
    222a:	71 05       	cpc	r23, r1
    222c:	81 05       	cpc	r24, r1
    222e:	91 05       	cpc	r25, r1
    2230:	41 f0       	breq	.+16     	; 0x2242 <random_seed+0x1a>
    2232:	60 93 2c 01 	sts	0x012C, r22	; 0x80012c <m_u>
    2236:	70 93 2d 01 	sts	0x012D, r23	; 0x80012d <m_u+0x1>
    223a:	80 93 2e 01 	sts	0x012E, r24	; 0x80012e <m_u+0x2>
    223e:	90 93 2f 01 	sts	0x012F, r25	; 0x80012f <m_u+0x3>
    2242:	21 15       	cp	r18, r1
    2244:	31 05       	cpc	r19, r1
    2246:	41 05       	cpc	r20, r1
    2248:	51 05       	cpc	r21, r1
    224a:	41 f0       	breq	.+16     	; 0x225c <random_seed+0x34>
    224c:	20 93 28 01 	sts	0x0128, r18	; 0x800128 <m_v>
    2250:	30 93 29 01 	sts	0x0129, r19	; 0x800129 <m_v+0x1>
    2254:	40 93 2a 01 	sts	0x012A, r20	; 0x80012a <m_v+0x2>
    2258:	50 93 2b 01 	sts	0x012B, r21	; 0x80012b <m_v+0x3>
    225c:	08 95       	ret

0000225e <random>:
    225e:	4f 92       	push	r4
    2260:	5f 92       	push	r5
    2262:	6f 92       	push	r6
    2264:	7f 92       	push	r7
    2266:	8f 92       	push	r8
    2268:	9f 92       	push	r9
    226a:	af 92       	push	r10
    226c:	bf 92       	push	r11
    226e:	cf 92       	push	r12
    2270:	df 92       	push	r13
    2272:	ef 92       	push	r14
    2274:	ff 92       	push	r15
    2276:	cf 93       	push	r28
    2278:	df 93       	push	r29
    227a:	00 d0       	rcall	.+0      	; 0x227c <random+0x1e>
    227c:	00 d0       	rcall	.+0      	; 0x227e <random+0x20>
    227e:	cd b7       	in	r28, 0x3d	; 61
    2280:	de b7       	in	r29, 0x3e	; 62
    2282:	2b 01       	movw	r4, r22
    2284:	3c 01       	movw	r6, r24
    2286:	29 83       	std	Y+1, r18	; 0x01
    2288:	3a 83       	std	Y+2, r19	; 0x02
    228a:	4b 83       	std	Y+3, r20	; 0x03
    228c:	5c 83       	std	Y+4, r21	; 0x04
    228e:	c0 90 28 01 	lds	r12, 0x0128	; 0x800128 <m_v>
    2292:	d0 90 29 01 	lds	r13, 0x0129	; 0x800129 <m_v+0x1>
    2296:	e0 90 2a 01 	lds	r14, 0x012A	; 0x80012a <m_v+0x2>
    229a:	f0 90 2b 01 	lds	r15, 0x012B	; 0x80012b <m_v+0x3>
    229e:	a7 01       	movw	r20, r14
    22a0:	96 01       	movw	r18, r12
    22a2:	44 27       	eor	r20, r20
    22a4:	55 27       	eor	r21, r21
    22a6:	a9 e6       	ldi	r26, 0x69	; 105
    22a8:	b0 e9       	ldi	r27, 0x90	; 144
    22aa:	0e 94 fe 14 	call	0x29fc	; 0x29fc <__muluhisi3>
    22ae:	67 01       	movw	r12, r14
    22b0:	ee 24       	eor	r14, r14
    22b2:	ff 24       	eor	r15, r15
    22b4:	4b 01       	movw	r8, r22
    22b6:	5c 01       	movw	r10, r24
    22b8:	8c 0c       	add	r8, r12
    22ba:	9d 1c       	adc	r9, r13
    22bc:	ae 1c       	adc	r10, r14
    22be:	bf 1c       	adc	r11, r15
    22c0:	80 92 28 01 	sts	0x0128, r8	; 0x800128 <m_v>
    22c4:	90 92 29 01 	sts	0x0129, r9	; 0x800129 <m_v+0x1>
    22c8:	a0 92 2a 01 	sts	0x012A, r10	; 0x80012a <m_v+0x2>
    22cc:	b0 92 2b 01 	sts	0x012B, r11	; 0x80012b <m_v+0x3>
    22d0:	c0 90 2c 01 	lds	r12, 0x012C	; 0x80012c <m_u>
    22d4:	d0 90 2d 01 	lds	r13, 0x012D	; 0x80012d <m_u+0x1>
    22d8:	e0 90 2e 01 	lds	r14, 0x012E	; 0x80012e <m_u+0x2>
    22dc:	f0 90 2f 01 	lds	r15, 0x012F	; 0x80012f <m_u+0x3>
    22e0:	a7 01       	movw	r20, r14
    22e2:	96 01       	movw	r18, r12
    22e4:	44 27       	eor	r20, r20
    22e6:	55 27       	eor	r21, r21
    22e8:	a0 e5       	ldi	r26, 0x50	; 80
    22ea:	b6 e4       	ldi	r27, 0x46	; 70
    22ec:	0e 94 fe 14 	call	0x29fc	; 0x29fc <__muluhisi3>
    22f0:	67 01       	movw	r12, r14
    22f2:	ee 24       	eor	r14, r14
    22f4:	ff 24       	eor	r15, r15
    22f6:	c6 0e       	add	r12, r22
    22f8:	d7 1e       	adc	r13, r23
    22fa:	e8 1e       	adc	r14, r24
    22fc:	f9 1e       	adc	r15, r25
    22fe:	c0 92 2c 01 	sts	0x012C, r12	; 0x80012c <m_u>
    2302:	d0 92 2d 01 	sts	0x012D, r13	; 0x80012d <m_u+0x1>
    2306:	e0 92 2e 01 	sts	0x012E, r14	; 0x80012e <m_u+0x2>
    230a:	f0 92 2f 01 	sts	0x012F, r15	; 0x80012f <m_u+0x3>
    230e:	d4 01       	movw	r26, r8
    2310:	99 27       	eor	r25, r25
    2312:	88 27       	eor	r24, r24
    2314:	bc 01       	movw	r22, r24
    2316:	cd 01       	movw	r24, r26
    2318:	6c 0d       	add	r22, r12
    231a:	7d 1d       	adc	r23, r13
    231c:	8e 1d       	adc	r24, r14
    231e:	9f 1d       	adc	r25, r15
    2320:	29 81       	ldd	r18, Y+1	; 0x01
    2322:	3a 81       	ldd	r19, Y+2	; 0x02
    2324:	4b 81       	ldd	r20, Y+3	; 0x03
    2326:	5c 81       	ldd	r21, Y+4	; 0x04
    2328:	24 19       	sub	r18, r4
    232a:	35 09       	sbc	r19, r5
    232c:	46 09       	sbc	r20, r6
    232e:	57 09       	sbc	r21, r7
    2330:	0e 94 a8 14 	call	0x2950	; 0x2950 <__udivmodsi4>
    2334:	cb 01       	movw	r24, r22
    2336:	84 0d       	add	r24, r4
    2338:	95 1d       	adc	r25, r5
    233a:	0f 90       	pop	r0
    233c:	0f 90       	pop	r0
    233e:	0f 90       	pop	r0
    2340:	0f 90       	pop	r0
    2342:	df 91       	pop	r29
    2344:	cf 91       	pop	r28
    2346:	ff 90       	pop	r15
    2348:	ef 90       	pop	r14
    234a:	df 90       	pop	r13
    234c:	cf 90       	pop	r12
    234e:	bf 90       	pop	r11
    2350:	af 90       	pop	r10
    2352:	9f 90       	pop	r9
    2354:	8f 90       	pop	r8
    2356:	7f 90       	pop	r7
    2358:	6f 90       	pop	r6
    235a:	5f 90       	pop	r5
    235c:	4f 90       	pop	r4
    235e:	08 95       	ret

00002360 <strtoi>:
    2360:	cf 93       	push	r28
    2362:	db 01       	movw	r26, r22
    2364:	fc 01       	movw	r30, r24
    2366:	20 81       	ld	r18, Z
    2368:	2d 32       	cpi	r18, 0x2D	; 45
    236a:	21 f4       	brne	.+8      	; 0x2374 <strtoi+0x14>
    236c:	01 96       	adiw	r24, 0x01	; 1
    236e:	6f ef       	ldi	r22, 0xFF	; 255
    2370:	7f ef       	ldi	r23, 0xFF	; 255
    2372:	02 c0       	rjmp	.+4      	; 0x2378 <strtoi+0x18>
    2374:	61 e0       	ldi	r22, 0x01	; 1
    2376:	70 e0       	ldi	r23, 0x00	; 0
    2378:	11 96       	adiw	r26, 0x01	; 1
    237a:	1c 92       	st	X, r1
    237c:	1e 92       	st	-X, r1
    237e:	fc 01       	movw	r30, r24
    2380:	ca e0       	ldi	r28, 0x0A	; 10
    2382:	20 81       	ld	r18, Z
    2384:	8d 91       	ld	r24, X+
    2386:	9c 91       	ld	r25, X
    2388:	11 97       	sbiw	r26, 0x01	; 1
    238a:	22 23       	and	r18, r18
    238c:	c1 f0       	breq	.+48     	; 0x23be <strtoi+0x5e>
    238e:	c8 9f       	mul	r28, r24
    2390:	a0 01       	movw	r20, r0
    2392:	c9 9f       	mul	r28, r25
    2394:	50 0d       	add	r21, r0
    2396:	11 24       	eor	r1, r1
    2398:	11 96       	adiw	r26, 0x01	; 1
    239a:	5c 93       	st	X, r21
    239c:	4e 93       	st	-X, r20
    239e:	21 91       	ld	r18, Z+
    23a0:	80 ed       	ldi	r24, 0xD0	; 208
    23a2:	82 0f       	add	r24, r18
    23a4:	8a 30       	cpi	r24, 0x0A	; 10
    23a6:	b8 f4       	brcc	.+46     	; 0x23d6 <strtoi+0x76>
    23a8:	02 2e       	mov	r0, r18
    23aa:	00 0c       	add	r0, r0
    23ac:	33 0b       	sbc	r19, r19
    23ae:	20 53       	subi	r18, 0x30	; 48
    23b0:	31 09       	sbc	r19, r1
    23b2:	24 0f       	add	r18, r20
    23b4:	35 1f       	adc	r19, r21
    23b6:	11 96       	adiw	r26, 0x01	; 1
    23b8:	3c 93       	st	X, r19
    23ba:	2e 93       	st	-X, r18
    23bc:	e2 cf       	rjmp	.-60     	; 0x2382 <strtoi+0x22>
    23be:	86 9f       	mul	r24, r22
    23c0:	90 01       	movw	r18, r0
    23c2:	87 9f       	mul	r24, r23
    23c4:	30 0d       	add	r19, r0
    23c6:	96 9f       	mul	r25, r22
    23c8:	30 0d       	add	r19, r0
    23ca:	11 24       	eor	r1, r1
    23cc:	2d 93       	st	X+, r18
    23ce:	3c 93       	st	X, r19
    23d0:	81 e0       	ldi	r24, 0x01	; 1
    23d2:	90 e0       	ldi	r25, 0x00	; 0
    23d4:	02 c0       	rjmp	.+4      	; 0x23da <strtoi+0x7a>
    23d6:	80 e0       	ldi	r24, 0x00	; 0
    23d8:	90 e0       	ldi	r25, 0x00	; 0
    23da:	cf 91       	pop	r28
    23dc:	08 95       	ret

000023de <vpd_is_data_valid>:
    23de:	80 91 01 05 	lds	r24, 0x0501	; 0x800501 <vpd>
    23e2:	83 35       	cpi	r24, 0x53	; 83
    23e4:	61 f4       	brne	.+24     	; 0x23fe <vpd_is_data_valid+0x20>
    23e6:	80 91 02 05 	lds	r24, 0x0502	; 0x800502 <vpd+0x1>
    23ea:	85 34       	cpi	r24, 0x45	; 69
    23ec:	41 f4       	brne	.+16     	; 0x23fe <vpd_is_data_valid+0x20>
    23ee:	81 e0       	ldi	r24, 0x01	; 1
    23f0:	90 e0       	ldi	r25, 0x00	; 0
    23f2:	20 91 03 05 	lds	r18, 0x0503	; 0x800503 <vpd+0x2>
    23f6:	22 35       	cpi	r18, 0x52	; 82
    23f8:	21 f0       	breq	.+8      	; 0x2402 <vpd_is_data_valid+0x24>
    23fa:	80 e0       	ldi	r24, 0x00	; 0
    23fc:	02 c0       	rjmp	.+4      	; 0x2402 <vpd_is_data_valid+0x24>
    23fe:	80 e0       	ldi	r24, 0x00	; 0
    2400:	90 e0       	ldi	r25, 0x00	; 0
    2402:	e1 e0       	ldi	r30, 0x01	; 1
    2404:	f5 e0       	ldi	r31, 0x05	; 5
    2406:	20 e0       	ldi	r18, 0x00	; 0
    2408:	31 91       	ld	r19, Z+
    240a:	23 0f       	add	r18, r19
    240c:	35 e0       	ldi	r19, 0x05	; 5
    240e:	e9 33       	cpi	r30, 0x39	; 57
    2410:	f3 07       	cpc	r31, r19
    2412:	d1 f7       	brne	.-12     	; 0x2408 <vpd_is_data_valid+0x2a>
    2414:	22 23       	and	r18, r18
    2416:	11 f0       	breq	.+4      	; 0x241c <vpd_is_data_valid+0x3e>
    2418:	80 e0       	ldi	r24, 0x00	; 0
    241a:	90 e0       	ldi	r25, 0x00	; 0
    241c:	08 95       	ret

0000241e <vpd_write_defaults>:
    241e:	cf 93       	push	r28
    2420:	df 93       	push	r29
    2422:	cd b7       	in	r28, 0x3d	; 61
    2424:	de b7       	in	r29, 0x3e	; 62
    2426:	e7 97       	sbiw	r28, 0x37	; 55
    2428:	0f b6       	in	r0, 0x3f	; 63
    242a:	f8 94       	cli
    242c:	de bf       	out	0x3e, r29	; 62
    242e:	0f be       	out	0x3f, r0	; 63
    2430:	cd bf       	out	0x3d, r28	; 61
    2432:	87 e3       	ldi	r24, 0x37	; 55
    2434:	e4 ea       	ldi	r30, 0xA4	; 164
    2436:	f1 e0       	ldi	r31, 0x01	; 1
    2438:	de 01       	movw	r26, r28
    243a:	11 96       	adiw	r26, 0x01	; 1
    243c:	01 90       	ld	r0, Z+
    243e:	0d 92       	st	X+, r0
    2440:	8a 95       	dec	r24
    2442:	e1 f7       	brne	.-8      	; 0x243c <vpd_write_defaults+0x1e>
    2444:	67 e3       	ldi	r22, 0x37	; 55
    2446:	70 e0       	ldi	r23, 0x00	; 0
    2448:	ce 01       	movw	r24, r28
    244a:	01 96       	adiw	r24, 0x01	; 1
    244c:	0e 94 00 11 	call	0x2200	; 0x2200 <update_checksum>
    2450:	47 e3       	ldi	r20, 0x37	; 55
    2452:	be 01       	movw	r22, r28
    2454:	6f 5f       	subi	r22, 0xFF	; 255
    2456:	7f 4f       	sbci	r23, 0xFF	; 255
    2458:	80 e0       	ldi	r24, 0x00	; 0
    245a:	90 e0       	ldi	r25, 0x00	; 0
    245c:	0e 94 35 05 	call	0xa6a	; 0xa6a <eeprom_writebuf>
    2460:	e7 96       	adiw	r28, 0x37	; 55
    2462:	0f b6       	in	r0, 0x3f	; 63
    2464:	f8 94       	cli
    2466:	de bf       	out	0x3e, r29	; 62
    2468:	0f be       	out	0x3f, r0	; 63
    246a:	cd bf       	out	0x3d, r28	; 61
    246c:	df 91       	pop	r29
    246e:	cf 91       	pop	r28
    2470:	08 95       	ret

00002472 <vpd_init>:
    2472:	0e 94 7e 05 	call	0xafc	; 0xafc <eeprom_isbusy>
    2476:	89 2b       	or	r24, r25
    2478:	e1 f7       	brne	.-8      	; 0x2472 <vpd_init>
    247a:	47 e3       	ldi	r20, 0x37	; 55
    247c:	61 e0       	ldi	r22, 0x01	; 1
    247e:	75 e0       	ldi	r23, 0x05	; 5
    2480:	80 e0       	ldi	r24, 0x00	; 0
    2482:	90 e0       	ldi	r25, 0x00	; 0
    2484:	0e 94 69 05 	call	0xad2	; 0xad2 <eeprom_readbuf>
    2488:	0e 94 ef 11 	call	0x23de	; 0x23de <vpd_is_data_valid>
    248c:	89 2b       	or	r24, r25
    248e:	49 f4       	brne	.+18     	; 0x24a2 <vpd_init+0x30>
    2490:	0e 94 0f 12 	call	0x241e	; 0x241e <vpd_write_defaults>
    2494:	47 e3       	ldi	r20, 0x37	; 55
    2496:	61 e0       	ldi	r22, 0x01	; 1
    2498:	75 e0       	ldi	r23, 0x05	; 5
    249a:	80 e0       	ldi	r24, 0x00	; 0
    249c:	90 e0       	ldi	r25, 0x00	; 0
    249e:	0c 94 69 05 	jmp	0xad2	; 0xad2 <eeprom_readbuf>
    24a2:	08 95       	ret

000024a4 <serial_init>:
    24a4:	10 92 c0 00 	sts	0x00C0, r1	; 0x8000c0 <__TEXT_REGION_LENGTH__+0x7e00c0>
    24a8:	87 e6       	ldi	r24, 0x67	; 103
    24aa:	90 e0       	ldi	r25, 0x00	; 0
    24ac:	90 93 c5 00 	sts	0x00C5, r25	; 0x8000c5 <__TEXT_REGION_LENGTH__+0x7e00c5>
    24b0:	80 93 c4 00 	sts	0x00C4, r24	; 0x8000c4 <__TEXT_REGION_LENGTH__+0x7e00c4>
    24b4:	e1 ec       	ldi	r30, 0xC1	; 193
    24b6:	f0 e0       	ldi	r31, 0x00	; 0
    24b8:	88 e1       	ldi	r24, 0x18	; 24
    24ba:	80 83       	st	Z, r24
    24bc:	86 e0       	ldi	r24, 0x06	; 6
    24be:	80 93 c2 00 	sts	0x00C2, r24	; 0x8000c2 <__TEXT_REGION_LENGTH__+0x7e00c2>
    24c2:	80 81       	ld	r24, Z
    24c4:	80 6a       	ori	r24, 0xA0	; 160
    24c6:	80 83       	st	Z, r24
    24c8:	08 95       	ret

000024ca <__vector_18>:
    24ca:	1f 92       	push	r1
    24cc:	0f 92       	push	r0
    24ce:	0f b6       	in	r0, 0x3f	; 63
    24d0:	0f 92       	push	r0
    24d2:	11 24       	eor	r1, r1
    24d4:	2f 93       	push	r18
    24d6:	3f 93       	push	r19
    24d8:	8f 93       	push	r24
    24da:	9f 93       	push	r25
    24dc:	ef 93       	push	r30
    24de:	ff 93       	push	r31
    24e0:	80 91 a5 04 	lds	r24, 0x04A5	; 0x8004a5 <socket_mode>
    24e4:	88 23       	and	r24, r24
    24e6:	09 f4       	brne	.+2      	; 0x24ea <__vector_18+0x20>
    24e8:	f0 c0       	rjmp	.+480    	; 0x26ca <__vector_18+0x200>
    24ea:	80 91 c6 00 	lds	r24, 0x00C6	; 0x8000c6 <__TEXT_REGION_LENGTH__+0x7e00c6>
    24ee:	90 91 a4 04 	lds	r25, 0x04A4	; 0x8004a4 <socket_connected>
    24f2:	99 23       	and	r25, r25
    24f4:	09 f4       	brne	.+2      	; 0x24f8 <__vector_18+0x2e>
    24f6:	e3 c0       	rjmp	.+454    	; 0x26be <__vector_18+0x1f4>
    24f8:	90 ee       	ldi	r25, 0xE0	; 224
    24fa:	98 0f       	add	r25, r24
    24fc:	9f 35       	cpi	r25, 0x5F	; 95
    24fe:	18 f0       	brcs	.+6      	; 0x2506 <__vector_18+0x3c>
    2500:	8d 30       	cpi	r24, 0x0D	; 13
    2502:	09 f0       	breq	.+2      	; 0x2506 <__vector_18+0x3c>
    2504:	59 c0       	rjmp	.+178    	; 0x25b8 <__vector_18+0xee>
    2506:	20 91 a1 04 	lds	r18, 0x04A1	; 0x8004a1 <rxtail>
    250a:	90 91 a2 04 	lds	r25, 0x04A2	; 0x8004a2 <rxhead>
    250e:	30 e0       	ldi	r19, 0x00	; 0
    2510:	29 1b       	sub	r18, r25
    2512:	31 09       	sbc	r19, r1
    2514:	21 50       	subi	r18, 0x01	; 1
    2516:	31 09       	sbc	r19, r1
    2518:	2f 73       	andi	r18, 0x3F	; 63
    251a:	33 27       	eor	r19, r19
    251c:	23 2b       	or	r18, r19
    251e:	61 f0       	breq	.+24     	; 0x2538 <__vector_18+0x6e>
    2520:	e0 91 a2 04 	lds	r30, 0x04A2	; 0x8004a2 <rxhead>
    2524:	f0 e0       	ldi	r31, 0x00	; 0
    2526:	e8 5c       	subi	r30, 0xC8	; 200
    2528:	fa 4f       	sbci	r31, 0xFA	; 250
    252a:	80 83       	st	Z, r24
    252c:	90 91 a2 04 	lds	r25, 0x04A2	; 0x8004a2 <rxhead>
    2530:	9f 5f       	subi	r25, 0xFF	; 255
    2532:	9f 73       	andi	r25, 0x3F	; 63
    2534:	90 93 a2 04 	sts	0x04A2, r25	; 0x8004a2 <rxhead>
    2538:	20 91 9f 04 	lds	r18, 0x049F	; 0x80049f <txtail>
    253c:	90 91 a0 04 	lds	r25, 0x04A0	; 0x8004a0 <txhead>
    2540:	30 e0       	ldi	r19, 0x00	; 0
    2542:	29 1b       	sub	r18, r25
    2544:	31 09       	sbc	r19, r1
    2546:	21 50       	subi	r18, 0x01	; 1
    2548:	31 09       	sbc	r19, r1
    254a:	2f 73       	andi	r18, 0x3F	; 63
    254c:	33 27       	eor	r19, r19
    254e:	23 2b       	or	r18, r19
    2550:	89 f0       	breq	.+34     	; 0x2574 <__vector_18+0xaa>
    2552:	e0 91 a0 04 	lds	r30, 0x04A0	; 0x8004a0 <txhead>
    2556:	f0 e0       	ldi	r31, 0x00	; 0
    2558:	e8 58       	subi	r30, 0x88	; 136
    255a:	fa 4f       	sbci	r31, 0xFA	; 250
    255c:	80 83       	st	Z, r24
    255e:	90 91 a0 04 	lds	r25, 0x04A0	; 0x8004a0 <txhead>
    2562:	9f 5f       	subi	r25, 0xFF	; 255
    2564:	9f 73       	andi	r25, 0x3F	; 63
    2566:	90 93 a0 04 	sts	0x04A0, r25	; 0x8004a0 <txhead>
    256a:	90 91 c1 00 	lds	r25, 0x00C1	; 0x8000c1 <__TEXT_REGION_LENGTH__+0x7e00c1>
    256e:	90 62       	ori	r25, 0x20	; 32
    2570:	90 93 c1 00 	sts	0x00C1, r25	; 0x8000c1 <__TEXT_REGION_LENGTH__+0x7e00c1>
    2574:	8d 30       	cpi	r24, 0x0D	; 13
    2576:	09 f0       	breq	.+2      	; 0x257a <__vector_18+0xb0>
    2578:	c5 c0       	rjmp	.+394    	; 0x2704 <__vector_18+0x23a>
    257a:	80 91 9f 04 	lds	r24, 0x049F	; 0x80049f <txtail>
    257e:	20 91 a0 04 	lds	r18, 0x04A0	; 0x8004a0 <txhead>
    2582:	90 e0       	ldi	r25, 0x00	; 0
    2584:	82 1b       	sub	r24, r18
    2586:	91 09       	sbc	r25, r1
    2588:	01 97       	sbiw	r24, 0x01	; 1
    258a:	8f 73       	andi	r24, 0x3F	; 63
    258c:	99 27       	eor	r25, r25
    258e:	89 2b       	or	r24, r25
    2590:	69 f0       	breq	.+26     	; 0x25ac <__vector_18+0xe2>
    2592:	e0 91 a0 04 	lds	r30, 0x04A0	; 0x8004a0 <txhead>
    2596:	f0 e0       	ldi	r31, 0x00	; 0
    2598:	e8 58       	subi	r30, 0x88	; 136
    259a:	fa 4f       	sbci	r31, 0xFA	; 250
    259c:	8a e0       	ldi	r24, 0x0A	; 10
    259e:	80 83       	st	Z, r24
    25a0:	80 91 a0 04 	lds	r24, 0x04A0	; 0x8004a0 <txhead>
    25a4:	8f 5f       	subi	r24, 0xFF	; 255
    25a6:	8f 73       	andi	r24, 0x3F	; 63
    25a8:	80 93 a0 04 	sts	0x04A0, r24	; 0x8004a0 <txhead>
    25ac:	80 91 a3 04 	lds	r24, 0x04A3	; 0x8004a3 <packet_available>
    25b0:	8f 5f       	subi	r24, 0xFF	; 255
    25b2:	80 93 a3 04 	sts	0x04A3, r24	; 0x8004a3 <packet_available>
    25b6:	a6 c0       	rjmp	.+332    	; 0x2704 <__vector_18+0x23a>
    25b8:	88 30       	cpi	r24, 0x08	; 8
    25ba:	11 f0       	breq	.+4      	; 0x25c0 <__vector_18+0xf6>
    25bc:	8f 37       	cpi	r24, 0x7F	; 127
    25be:	c1 f5       	brne	.+112    	; 0x2630 <__vector_18+0x166>
    25c0:	80 91 a2 04 	lds	r24, 0x04A2	; 0x8004a2 <rxhead>
    25c4:	20 91 a1 04 	lds	r18, 0x04A1	; 0x8004a1 <rxtail>
    25c8:	90 e0       	ldi	r25, 0x00	; 0
    25ca:	82 1b       	sub	r24, r18
    25cc:	91 09       	sbc	r25, r1
    25ce:	8f 73       	andi	r24, 0x3F	; 63
    25d0:	99 27       	eor	r25, r25
    25d2:	89 2b       	or	r24, r25
    25d4:	09 f4       	brne	.+2      	; 0x25d8 <__vector_18+0x10e>
    25d6:	96 c0       	rjmp	.+300    	; 0x2704 <__vector_18+0x23a>
    25d8:	e0 91 a2 04 	lds	r30, 0x04A2	; 0x8004a2 <rxhead>
    25dc:	f0 e0       	ldi	r31, 0x00	; 0
    25de:	e8 5c       	subi	r30, 0xC8	; 200
    25e0:	fa 4f       	sbci	r31, 0xFA	; 250
    25e2:	80 81       	ld	r24, Z
    25e4:	80 91 a2 04 	lds	r24, 0x04A2	; 0x8004a2 <rxhead>
    25e8:	81 50       	subi	r24, 0x01	; 1
    25ea:	8f 73       	andi	r24, 0x3F	; 63
    25ec:	80 93 a2 04 	sts	0x04A2, r24	; 0x8004a2 <rxhead>
    25f0:	80 91 9f 04 	lds	r24, 0x049F	; 0x80049f <txtail>
    25f4:	20 91 a0 04 	lds	r18, 0x04A0	; 0x8004a0 <txhead>
    25f8:	90 e0       	ldi	r25, 0x00	; 0
    25fa:	82 1b       	sub	r24, r18
    25fc:	91 09       	sbc	r25, r1
    25fe:	01 97       	sbiw	r24, 0x01	; 1
    2600:	8f 73       	andi	r24, 0x3F	; 63
    2602:	99 27       	eor	r25, r25
    2604:	89 2b       	or	r24, r25
    2606:	09 f4       	brne	.+2      	; 0x260a <__vector_18+0x140>
    2608:	7d c0       	rjmp	.+250    	; 0x2704 <__vector_18+0x23a>
    260a:	e0 91 a0 04 	lds	r30, 0x04A0	; 0x8004a0 <txhead>
    260e:	f0 e0       	ldi	r31, 0x00	; 0
    2610:	e8 58       	subi	r30, 0x88	; 136
    2612:	fa 4f       	sbci	r31, 0xFA	; 250
    2614:	8f e7       	ldi	r24, 0x7F	; 127
    2616:	80 83       	st	Z, r24
    2618:	80 91 a0 04 	lds	r24, 0x04A0	; 0x8004a0 <txhead>
    261c:	8f 5f       	subi	r24, 0xFF	; 255
    261e:	8f 73       	andi	r24, 0x3F	; 63
    2620:	80 93 a0 04 	sts	0x04A0, r24	; 0x8004a0 <txhead>
    2624:	80 91 c1 00 	lds	r24, 0x00C1	; 0x8000c1 <__TEXT_REGION_LENGTH__+0x7e00c1>
    2628:	80 62       	ori	r24, 0x20	; 32
    262a:	80 93 c1 00 	sts	0x00C1, r24	; 0x8000c1 <__TEXT_REGION_LENGTH__+0x7e00c1>
    262e:	6a c0       	rjmp	.+212    	; 0x2704 <__vector_18+0x23a>
    2630:	84 30       	cpi	r24, 0x04	; 4
    2632:	09 f0       	breq	.+2      	; 0x2636 <__vector_18+0x16c>
    2634:	67 c0       	rjmp	.+206    	; 0x2704 <__vector_18+0x23a>
    2636:	80 91 a2 04 	lds	r24, 0x04A2	; 0x8004a2 <rxhead>
    263a:	20 91 a1 04 	lds	r18, 0x04A1	; 0x8004a1 <rxtail>
    263e:	90 e0       	ldi	r25, 0x00	; 0
    2640:	82 1b       	sub	r24, r18
    2642:	91 09       	sbc	r25, r1
    2644:	8f 73       	andi	r24, 0x3F	; 63
    2646:	99 27       	eor	r25, r25
    2648:	89 2b       	or	r24, r25
    264a:	31 f1       	breq	.+76     	; 0x2698 <__vector_18+0x1ce>
    264c:	e0 91 a2 04 	lds	r30, 0x04A2	; 0x8004a2 <rxhead>
    2650:	f0 e0       	ldi	r31, 0x00	; 0
    2652:	e8 5c       	subi	r30, 0xC8	; 200
    2654:	fa 4f       	sbci	r31, 0xFA	; 250
    2656:	80 81       	ld	r24, Z
    2658:	8d 30       	cpi	r24, 0x0D	; 13
    265a:	f1 f0       	breq	.+60     	; 0x2698 <__vector_18+0x1ce>
    265c:	80 91 a1 04 	lds	r24, 0x04A1	; 0x8004a1 <rxtail>
    2660:	20 91 a2 04 	lds	r18, 0x04A2	; 0x8004a2 <rxhead>
    2664:	90 e0       	ldi	r25, 0x00	; 0
    2666:	82 1b       	sub	r24, r18
    2668:	91 09       	sbc	r25, r1
    266a:	01 97       	sbiw	r24, 0x01	; 1
    266c:	8f 73       	andi	r24, 0x3F	; 63
    266e:	99 27       	eor	r25, r25
    2670:	89 2b       	or	r24, r25
    2672:	91 f0       	breq	.+36     	; 0x2698 <__vector_18+0x1ce>
    2674:	e0 91 a2 04 	lds	r30, 0x04A2	; 0x8004a2 <rxhead>
    2678:	f0 e0       	ldi	r31, 0x00	; 0
    267a:	e8 5c       	subi	r30, 0xC8	; 200
    267c:	fa 4f       	sbci	r31, 0xFA	; 250
    267e:	8d e0       	ldi	r24, 0x0D	; 13
    2680:	80 83       	st	Z, r24
    2682:	80 91 a2 04 	lds	r24, 0x04A2	; 0x8004a2 <rxhead>
    2686:	8f 5f       	subi	r24, 0xFF	; 255
    2688:	8f 73       	andi	r24, 0x3F	; 63
    268a:	80 93 a2 04 	sts	0x04A2, r24	; 0x8004a2 <rxhead>
    268e:	80 91 a3 04 	lds	r24, 0x04A3	; 0x8004a3 <packet_available>
    2692:	8f 5f       	subi	r24, 0xFF	; 255
    2694:	80 93 a3 04 	sts	0x04A3, r24	; 0x8004a3 <packet_available>
    2698:	80 91 a1 04 	lds	r24, 0x04A1	; 0x8004a1 <rxtail>
    269c:	20 91 a2 04 	lds	r18, 0x04A2	; 0x8004a2 <rxhead>
    26a0:	90 e0       	ldi	r25, 0x00	; 0
    26a2:	82 1b       	sub	r24, r18
    26a4:	91 09       	sbc	r25, r1
    26a6:	01 97       	sbiw	r24, 0x01	; 1
    26a8:	8f 73       	andi	r24, 0x3F	; 63
    26aa:	99 27       	eor	r25, r25
    26ac:	89 2b       	or	r24, r25
    26ae:	51 f1       	breq	.+84     	; 0x2704 <__vector_18+0x23a>
    26b0:	e0 91 a2 04 	lds	r30, 0x04A2	; 0x8004a2 <rxhead>
    26b4:	f0 e0       	ldi	r31, 0x00	; 0
    26b6:	e8 5c       	subi	r30, 0xC8	; 200
    26b8:	fa 4f       	sbci	r31, 0xFA	; 250
    26ba:	84 e0       	ldi	r24, 0x04	; 4
    26bc:	19 c0       	rjmp	.+50     	; 0x26f0 <__vector_18+0x226>
    26be:	83 30       	cpi	r24, 0x03	; 3
    26c0:	09 f5       	brne	.+66     	; 0x2704 <__vector_18+0x23a>
    26c2:	81 e0       	ldi	r24, 0x01	; 1
    26c4:	80 93 a4 04 	sts	0x04A4, r24	; 0x8004a4 <socket_connected>
    26c8:	1d c0       	rjmp	.+58     	; 0x2704 <__vector_18+0x23a>
    26ca:	80 91 a1 04 	lds	r24, 0x04A1	; 0x8004a1 <rxtail>
    26ce:	20 91 a2 04 	lds	r18, 0x04A2	; 0x8004a2 <rxhead>
    26d2:	90 e0       	ldi	r25, 0x00	; 0
    26d4:	82 1b       	sub	r24, r18
    26d6:	91 09       	sbc	r25, r1
    26d8:	01 97       	sbiw	r24, 0x01	; 1
    26da:	8f 73       	andi	r24, 0x3F	; 63
    26dc:	99 27       	eor	r25, r25
    26de:	89 2b       	or	r24, r25
    26e0:	79 f0       	breq	.+30     	; 0x2700 <__vector_18+0x236>
    26e2:	e0 91 a2 04 	lds	r30, 0x04A2	; 0x8004a2 <rxhead>
    26e6:	f0 e0       	ldi	r31, 0x00	; 0
    26e8:	80 91 c6 00 	lds	r24, 0x00C6	; 0x8000c6 <__TEXT_REGION_LENGTH__+0x7e00c6>
    26ec:	e8 5c       	subi	r30, 0xC8	; 200
    26ee:	fa 4f       	sbci	r31, 0xFA	; 250
    26f0:	80 83       	st	Z, r24
    26f2:	80 91 a2 04 	lds	r24, 0x04A2	; 0x8004a2 <rxhead>
    26f6:	8f 5f       	subi	r24, 0xFF	; 255
    26f8:	8f 73       	andi	r24, 0x3F	; 63
    26fa:	80 93 a2 04 	sts	0x04A2, r24	; 0x8004a2 <rxhead>
    26fe:	02 c0       	rjmp	.+4      	; 0x2704 <__vector_18+0x23a>
    2700:	80 91 c6 00 	lds	r24, 0x00C6	; 0x8000c6 <__TEXT_REGION_LENGTH__+0x7e00c6>
    2704:	ff 91       	pop	r31
    2706:	ef 91       	pop	r30
    2708:	9f 91       	pop	r25
    270a:	8f 91       	pop	r24
    270c:	3f 91       	pop	r19
    270e:	2f 91       	pop	r18
    2710:	0f 90       	pop	r0
    2712:	0f be       	out	0x3f, r0	; 63
    2714:	0f 90       	pop	r0
    2716:	1f 90       	pop	r1
    2718:	18 95       	reti

0000271a <__vector_19>:
    271a:	1f 92       	push	r1
    271c:	0f 92       	push	r0
    271e:	0f b6       	in	r0, 0x3f	; 63
    2720:	0f 92       	push	r0
    2722:	11 24       	eor	r1, r1
    2724:	2f 93       	push	r18
    2726:	8f 93       	push	r24
    2728:	9f 93       	push	r25
    272a:	ef 93       	push	r30
    272c:	ff 93       	push	r31
    272e:	80 91 a0 04 	lds	r24, 0x04A0	; 0x8004a0 <txhead>
    2732:	20 91 9f 04 	lds	r18, 0x049F	; 0x80049f <txtail>
    2736:	90 e0       	ldi	r25, 0x00	; 0
    2738:	82 1b       	sub	r24, r18
    273a:	91 09       	sbc	r25, r1
    273c:	8f 73       	andi	r24, 0x3F	; 63
    273e:	99 27       	eor	r25, r25
    2740:	89 2b       	or	r24, r25
    2742:	79 f0       	breq	.+30     	; 0x2762 <__vector_19+0x48>
    2744:	e0 91 9f 04 	lds	r30, 0x049F	; 0x80049f <txtail>
    2748:	f0 e0       	ldi	r31, 0x00	; 0
    274a:	e8 58       	subi	r30, 0x88	; 136
    274c:	fa 4f       	sbci	r31, 0xFA	; 250
    274e:	80 81       	ld	r24, Z
    2750:	80 93 c6 00 	sts	0x00C6, r24	; 0x8000c6 <__TEXT_REGION_LENGTH__+0x7e00c6>
    2754:	80 91 9f 04 	lds	r24, 0x049F	; 0x80049f <txtail>
    2758:	8f 5f       	subi	r24, 0xFF	; 255
    275a:	8f 73       	andi	r24, 0x3F	; 63
    275c:	80 93 9f 04 	sts	0x049F, r24	; 0x80049f <txtail>
    2760:	05 c0       	rjmp	.+10     	; 0x276c <__vector_19+0x52>
    2762:	80 91 c1 00 	lds	r24, 0x00C1	; 0x8000c1 <__TEXT_REGION_LENGTH__+0x7e00c1>
    2766:	8f 7d       	andi	r24, 0xDF	; 223
    2768:	80 93 c1 00 	sts	0x00C1, r24	; 0x8000c1 <__TEXT_REGION_LENGTH__+0x7e00c1>
    276c:	ff 91       	pop	r31
    276e:	ef 91       	pop	r30
    2770:	9f 91       	pop	r25
    2772:	8f 91       	pop	r24
    2774:	2f 91       	pop	r18
    2776:	0f 90       	pop	r0
    2778:	0f be       	out	0x3f, r0	; 63
    277a:	0f 90       	pop	r0
    277c:	1f 90       	pop	r1
    277e:	18 95       	reti

00002780 <serial_rxchars>:
    2780:	80 91 a2 04 	lds	r24, 0x04A2	; 0x8004a2 <rxhead>
    2784:	90 91 a1 04 	lds	r25, 0x04A1	; 0x8004a1 <rxtail>
    2788:	89 1b       	sub	r24, r25
    278a:	8f 73       	andi	r24, 0x3F	; 63
    278c:	08 95       	ret

0000278e <serial_popchar>:
    278e:	80 91 a2 04 	lds	r24, 0x04A2	; 0x8004a2 <rxhead>
    2792:	20 91 a1 04 	lds	r18, 0x04A1	; 0x8004a1 <rxtail>
    2796:	90 e0       	ldi	r25, 0x00	; 0
    2798:	82 1b       	sub	r24, r18
    279a:	91 09       	sbc	r25, r1
    279c:	8f 73       	andi	r24, 0x3F	; 63
    279e:	99 27       	eor	r25, r25
    27a0:	89 2b       	or	r24, r25
    27a2:	c1 f0       	breq	.+48     	; 0x27d4 <serial_popchar+0x46>
    27a4:	e0 91 a1 04 	lds	r30, 0x04A1	; 0x8004a1 <rxtail>
    27a8:	f0 e0       	ldi	r31, 0x00	; 0
    27aa:	e8 5c       	subi	r30, 0xC8	; 200
    27ac:	fa 4f       	sbci	r31, 0xFA	; 250
    27ae:	80 81       	ld	r24, Z
    27b0:	90 91 a1 04 	lds	r25, 0x04A1	; 0x8004a1 <rxtail>
    27b4:	9f 5f       	subi	r25, 0xFF	; 255
    27b6:	9f 73       	andi	r25, 0x3F	; 63
    27b8:	90 93 a1 04 	sts	0x04A1, r25	; 0x8004a1 <rxtail>
    27bc:	90 91 a5 04 	lds	r25, 0x04A5	; 0x8004a5 <socket_mode>
    27c0:	99 23       	and	r25, r25
    27c2:	49 f0       	breq	.+18     	; 0x27d6 <serial_popchar+0x48>
    27c4:	8d 30       	cpi	r24, 0x0D	; 13
    27c6:	39 f4       	brne	.+14     	; 0x27d6 <serial_popchar+0x48>
    27c8:	90 91 a3 04 	lds	r25, 0x04A3	; 0x8004a3 <packet_available>
    27cc:	91 50       	subi	r25, 0x01	; 1
    27ce:	90 93 a3 04 	sts	0x04A3, r25	; 0x8004a3 <packet_available>
    27d2:	08 95       	ret
    27d4:	80 e0       	ldi	r24, 0x00	; 0
    27d6:	08 95       	ret

000027d8 <serial_isconnected>:
    27d8:	81 e0       	ldi	r24, 0x01	; 1
    27da:	80 93 a5 04 	sts	0x04A5, r24	; 0x8004a5 <socket_mode>
    27de:	80 91 a2 04 	lds	r24, 0x04A2	; 0x8004a2 <rxhead>
    27e2:	20 91 a1 04 	lds	r18, 0x04A1	; 0x8004a1 <rxtail>
    27e6:	90 e0       	ldi	r25, 0x00	; 0
    27e8:	82 1b       	sub	r24, r18
    27ea:	91 09       	sbc	r25, r1
    27ec:	8f 73       	andi	r24, 0x3F	; 63
    27ee:	99 27       	eor	r25, r25
    27f0:	89 2b       	or	r24, r25
    27f2:	b1 f0       	breq	.+44     	; 0x2820 <serial_isconnected+0x48>
    27f4:	e0 91 a1 04 	lds	r30, 0x04A1	; 0x8004a1 <rxtail>
    27f8:	f0 e0       	ldi	r31, 0x00	; 0
    27fa:	e8 5c       	subi	r30, 0xC8	; 200
    27fc:	fa 4f       	sbci	r31, 0xFA	; 250
    27fe:	80 81       	ld	r24, Z
    2800:	84 30       	cpi	r24, 0x04	; 4
    2802:	71 f4       	brne	.+28     	; 0x2820 <serial_isconnected+0x48>
    2804:	10 92 a4 04 	sts	0x04A4, r1	; 0x8004a4 <socket_connected>
    2808:	e0 91 a1 04 	lds	r30, 0x04A1	; 0x8004a1 <rxtail>
    280c:	f0 e0       	ldi	r31, 0x00	; 0
    280e:	e8 5c       	subi	r30, 0xC8	; 200
    2810:	fa 4f       	sbci	r31, 0xFA	; 250
    2812:	80 81       	ld	r24, Z
    2814:	80 91 a1 04 	lds	r24, 0x04A1	; 0x8004a1 <rxtail>
    2818:	8f 5f       	subi	r24, 0xFF	; 255
    281a:	8f 73       	andi	r24, 0x3F	; 63
    281c:	80 93 a1 04 	sts	0x04A1, r24	; 0x8004a1 <rxtail>
    2820:	80 91 a4 04 	lds	r24, 0x04A4	; 0x8004a4 <socket_connected>
    2824:	08 95       	ret

00002826 <serial_is_packet_ready>:
    2826:	80 91 a3 04 	lds	r24, 0x04A3	; 0x8004a3 <packet_available>
    282a:	08 95       	ret

0000282c <serial_writechar>:
    282c:	0f b6       	in	r0, 0x3f	; 63
    282e:	07 fe       	sbrs	r0, 7
    2830:	0e c0       	rjmp	.+28     	; 0x284e <serial_writechar+0x22>
    2832:	20 91 9f 04 	lds	r18, 0x049F	; 0x80049f <txtail>
    2836:	90 91 a0 04 	lds	r25, 0x04A0	; 0x8004a0 <txhead>
    283a:	30 e0       	ldi	r19, 0x00	; 0
    283c:	29 1b       	sub	r18, r25
    283e:	31 09       	sbc	r19, r1
    2840:	21 50       	subi	r18, 0x01	; 1
    2842:	31 09       	sbc	r19, r1
    2844:	2f 73       	andi	r18, 0x3F	; 63
    2846:	33 27       	eor	r19, r19
    2848:	23 2b       	or	r18, r19
    284a:	99 f3       	breq	.-26     	; 0x2832 <serial_writechar+0x6>
    284c:	0d c0       	rjmp	.+26     	; 0x2868 <serial_writechar+0x3c>
    284e:	20 91 9f 04 	lds	r18, 0x049F	; 0x80049f <txtail>
    2852:	90 91 a0 04 	lds	r25, 0x04A0	; 0x8004a0 <txhead>
    2856:	30 e0       	ldi	r19, 0x00	; 0
    2858:	29 1b       	sub	r18, r25
    285a:	31 09       	sbc	r19, r1
    285c:	21 50       	subi	r18, 0x01	; 1
    285e:	31 09       	sbc	r19, r1
    2860:	2f 73       	andi	r18, 0x3F	; 63
    2862:	33 27       	eor	r19, r19
    2864:	23 2b       	or	r18, r19
    2866:	61 f0       	breq	.+24     	; 0x2880 <serial_writechar+0x54>
    2868:	e0 91 a0 04 	lds	r30, 0x04A0	; 0x8004a0 <txhead>
    286c:	f0 e0       	ldi	r31, 0x00	; 0
    286e:	e8 58       	subi	r30, 0x88	; 136
    2870:	fa 4f       	sbci	r31, 0xFA	; 250
    2872:	80 83       	st	Z, r24
    2874:	80 91 a0 04 	lds	r24, 0x04A0	; 0x8004a0 <txhead>
    2878:	8f 5f       	subi	r24, 0xFF	; 255
    287a:	8f 73       	andi	r24, 0x3F	; 63
    287c:	80 93 a0 04 	sts	0x04A0, r24	; 0x8004a0 <txhead>
    2880:	80 91 c1 00 	lds	r24, 0x00C1	; 0x8000c1 <__TEXT_REGION_LENGTH__+0x7e00c1>
    2884:	80 62       	ori	r24, 0x20	; 32
    2886:	80 93 c1 00 	sts	0x00C1, r24	; 0x8000c1 <__TEXT_REGION_LENGTH__+0x7e00c1>
    288a:	08 95       	ret

0000288c <serial_writestr>:
    288c:	1f 93       	push	r17
    288e:	cf 93       	push	r28
    2890:	df 93       	push	r29
    2892:	ec 01       	movw	r28, r24
    2894:	80 e0       	ldi	r24, 0x00	; 0
    2896:	11 e0       	ldi	r17, 0x01	; 1
    2898:	18 0f       	add	r17, r24
    289a:	fe 01       	movw	r30, r28
    289c:	e8 0f       	add	r30, r24
    289e:	f1 1d       	adc	r31, r1
    28a0:	80 81       	ld	r24, Z
    28a2:	88 23       	and	r24, r24
    28a4:	21 f0       	breq	.+8      	; 0x28ae <serial_writestr+0x22>
    28a6:	0e 94 16 14 	call	0x282c	; 0x282c <serial_writechar>
    28aa:	81 2f       	mov	r24, r17
    28ac:	f4 cf       	rjmp	.-24     	; 0x2896 <serial_writestr+0xa>
    28ae:	df 91       	pop	r29
    28b0:	cf 91       	pop	r28
    28b2:	1f 91       	pop	r17
    28b4:	08 95       	ret

000028b6 <serial_writestr_P>:
    28b6:	1f 93       	push	r17
    28b8:	cf 93       	push	r28
    28ba:	df 93       	push	r29
    28bc:	ec 01       	movw	r28, r24
    28be:	80 e0       	ldi	r24, 0x00	; 0
    28c0:	11 e0       	ldi	r17, 0x01	; 1
    28c2:	18 0f       	add	r17, r24
    28c4:	fe 01       	movw	r30, r28
    28c6:	e8 0f       	add	r30, r24
    28c8:	f1 1d       	adc	r31, r1
    28ca:	84 91       	lpm	r24, Z
    28cc:	88 23       	and	r24, r24
    28ce:	21 f0       	breq	.+8      	; 0x28d8 <serial_writestr_P+0x22>
    28d0:	0e 94 16 14 	call	0x282c	; 0x282c <serial_writechar>
    28d4:	81 2f       	mov	r24, r17
    28d6:	f4 cf       	rjmp	.-24     	; 0x28c0 <serial_writestr_P+0xa>
    28d8:	df 91       	pop	r29
    28da:	cf 91       	pop	r28
    28dc:	1f 91       	pop	r17
    28de:	08 95       	ret

000028e0 <__mulsi3>:
    28e0:	db 01       	movw	r26, r22
    28e2:	8f 93       	push	r24
    28e4:	9f 93       	push	r25
    28e6:	0e 94 fe 14 	call	0x29fc	; 0x29fc <__muluhisi3>
    28ea:	bf 91       	pop	r27
    28ec:	af 91       	pop	r26
    28ee:	a2 9f       	mul	r26, r18
    28f0:	80 0d       	add	r24, r0
    28f2:	91 1d       	adc	r25, r1
    28f4:	a3 9f       	mul	r26, r19
    28f6:	90 0d       	add	r25, r0
    28f8:	b2 9f       	mul	r27, r18
    28fa:	90 0d       	add	r25, r0
    28fc:	11 24       	eor	r1, r1
    28fe:	08 95       	ret

00002900 <__udivmodhi4>:
    2900:	aa 1b       	sub	r26, r26
    2902:	bb 1b       	sub	r27, r27
    2904:	51 e1       	ldi	r21, 0x11	; 17
    2906:	07 c0       	rjmp	.+14     	; 0x2916 <__udivmodhi4_ep>

00002908 <__udivmodhi4_loop>:
    2908:	aa 1f       	adc	r26, r26
    290a:	bb 1f       	adc	r27, r27
    290c:	a6 17       	cp	r26, r22
    290e:	b7 07       	cpc	r27, r23
    2910:	10 f0       	brcs	.+4      	; 0x2916 <__udivmodhi4_ep>
    2912:	a6 1b       	sub	r26, r22
    2914:	b7 0b       	sbc	r27, r23

00002916 <__udivmodhi4_ep>:
    2916:	88 1f       	adc	r24, r24
    2918:	99 1f       	adc	r25, r25
    291a:	5a 95       	dec	r21
    291c:	a9 f7       	brne	.-22     	; 0x2908 <__udivmodhi4_loop>
    291e:	80 95       	com	r24
    2920:	90 95       	com	r25
    2922:	bc 01       	movw	r22, r24
    2924:	cd 01       	movw	r24, r26
    2926:	08 95       	ret

00002928 <__divmodhi4>:
    2928:	97 fb       	bst	r25, 7
    292a:	07 2e       	mov	r0, r23
    292c:	16 f4       	brtc	.+4      	; 0x2932 <__divmodhi4+0xa>
    292e:	00 94       	com	r0
    2930:	07 d0       	rcall	.+14     	; 0x2940 <__divmodhi4_neg1>
    2932:	77 fd       	sbrc	r23, 7
    2934:	09 d0       	rcall	.+18     	; 0x2948 <__divmodhi4_neg2>
    2936:	0e 94 80 14 	call	0x2900	; 0x2900 <__udivmodhi4>
    293a:	07 fc       	sbrc	r0, 7
    293c:	05 d0       	rcall	.+10     	; 0x2948 <__divmodhi4_neg2>
    293e:	3e f4       	brtc	.+14     	; 0x294e <__divmodhi4_exit>

00002940 <__divmodhi4_neg1>:
    2940:	90 95       	com	r25
    2942:	81 95       	neg	r24
    2944:	9f 4f       	sbci	r25, 0xFF	; 255
    2946:	08 95       	ret

00002948 <__divmodhi4_neg2>:
    2948:	70 95       	com	r23
    294a:	61 95       	neg	r22
    294c:	7f 4f       	sbci	r23, 0xFF	; 255

0000294e <__divmodhi4_exit>:
    294e:	08 95       	ret

00002950 <__udivmodsi4>:
    2950:	a1 e2       	ldi	r26, 0x21	; 33
    2952:	1a 2e       	mov	r1, r26
    2954:	aa 1b       	sub	r26, r26
    2956:	bb 1b       	sub	r27, r27
    2958:	fd 01       	movw	r30, r26
    295a:	0d c0       	rjmp	.+26     	; 0x2976 <__udivmodsi4_ep>

0000295c <__udivmodsi4_loop>:
    295c:	aa 1f       	adc	r26, r26
    295e:	bb 1f       	adc	r27, r27
    2960:	ee 1f       	adc	r30, r30
    2962:	ff 1f       	adc	r31, r31
    2964:	a2 17       	cp	r26, r18
    2966:	b3 07       	cpc	r27, r19
    2968:	e4 07       	cpc	r30, r20
    296a:	f5 07       	cpc	r31, r21
    296c:	20 f0       	brcs	.+8      	; 0x2976 <__udivmodsi4_ep>
    296e:	a2 1b       	sub	r26, r18
    2970:	b3 0b       	sbc	r27, r19
    2972:	e4 0b       	sbc	r30, r20
    2974:	f5 0b       	sbc	r31, r21

00002976 <__udivmodsi4_ep>:
    2976:	66 1f       	adc	r22, r22
    2978:	77 1f       	adc	r23, r23
    297a:	88 1f       	adc	r24, r24
    297c:	99 1f       	adc	r25, r25
    297e:	1a 94       	dec	r1
    2980:	69 f7       	brne	.-38     	; 0x295c <__udivmodsi4_loop>
    2982:	60 95       	com	r22
    2984:	70 95       	com	r23
    2986:	80 95       	com	r24
    2988:	90 95       	com	r25
    298a:	9b 01       	movw	r18, r22
    298c:	ac 01       	movw	r20, r24
    298e:	bd 01       	movw	r22, r26
    2990:	cf 01       	movw	r24, r30
    2992:	08 95       	ret

00002994 <__divmodsi4>:
    2994:	05 2e       	mov	r0, r21
    2996:	97 fb       	bst	r25, 7
    2998:	1e f4       	brtc	.+6      	; 0x29a0 <__divmodsi4+0xc>
    299a:	00 94       	com	r0
    299c:	0e 94 e1 14 	call	0x29c2	; 0x29c2 <__negsi2>
    29a0:	57 fd       	sbrc	r21, 7
    29a2:	07 d0       	rcall	.+14     	; 0x29b2 <__divmodsi4_neg2>
    29a4:	0e 94 a8 14 	call	0x2950	; 0x2950 <__udivmodsi4>
    29a8:	07 fc       	sbrc	r0, 7
    29aa:	03 d0       	rcall	.+6      	; 0x29b2 <__divmodsi4_neg2>
    29ac:	4e f4       	brtc	.+18     	; 0x29c0 <__divmodsi4_exit>
    29ae:	0c 94 e1 14 	jmp	0x29c2	; 0x29c2 <__negsi2>

000029b2 <__divmodsi4_neg2>:
    29b2:	50 95       	com	r21
    29b4:	40 95       	com	r20
    29b6:	30 95       	com	r19
    29b8:	21 95       	neg	r18
    29ba:	3f 4f       	sbci	r19, 0xFF	; 255
    29bc:	4f 4f       	sbci	r20, 0xFF	; 255
    29be:	5f 4f       	sbci	r21, 0xFF	; 255

000029c0 <__divmodsi4_exit>:
    29c0:	08 95       	ret

000029c2 <__negsi2>:
    29c2:	90 95       	com	r25
    29c4:	80 95       	com	r24
    29c6:	70 95       	com	r23
    29c8:	61 95       	neg	r22
    29ca:	7f 4f       	sbci	r23, 0xFF	; 255
    29cc:	8f 4f       	sbci	r24, 0xFF	; 255
    29ce:	9f 4f       	sbci	r25, 0xFF	; 255
    29d0:	08 95       	ret

000029d2 <__tablejump2__>:
    29d2:	ee 0f       	add	r30, r30
    29d4:	ff 1f       	adc	r31, r31
    29d6:	05 90       	lpm	r0, Z+
    29d8:	f4 91       	lpm	r31, Z
    29da:	e0 2d       	mov	r30, r0
    29dc:	09 94       	ijmp

000029de <__umulhisi3>:
    29de:	a2 9f       	mul	r26, r18
    29e0:	b0 01       	movw	r22, r0
    29e2:	b3 9f       	mul	r27, r19
    29e4:	c0 01       	movw	r24, r0
    29e6:	a3 9f       	mul	r26, r19
    29e8:	70 0d       	add	r23, r0
    29ea:	81 1d       	adc	r24, r1
    29ec:	11 24       	eor	r1, r1
    29ee:	91 1d       	adc	r25, r1
    29f0:	b2 9f       	mul	r27, r18
    29f2:	70 0d       	add	r23, r0
    29f4:	81 1d       	adc	r24, r1
    29f6:	11 24       	eor	r1, r1
    29f8:	91 1d       	adc	r25, r1
    29fa:	08 95       	ret

000029fc <__muluhisi3>:
    29fc:	0e 94 ef 14 	call	0x29de	; 0x29de <__umulhisi3>
    2a00:	a5 9f       	mul	r26, r21
    2a02:	90 0d       	add	r25, r0
    2a04:	b4 9f       	mul	r27, r20
    2a06:	90 0d       	add	r25, r0
    2a08:	a4 9f       	mul	r26, r20
    2a0a:	80 0d       	add	r24, r0
    2a0c:	91 1d       	adc	r25, r1
    2a0e:	11 24       	eor	r1, r1
    2a10:	08 95       	ret

00002a12 <_exit>:
    2a12:	f8 94       	cli

00002a14 <__stop_program>:
    2a14:	ff cf       	rjmp	.-2      	; 0x2a14 <__stop_program>
