Archive member included to satisfy reference by file (symbol)

/home/solisjose46/Desktop/SER486/github/project3/lib_projc.a(alarm.o)
                              obj/Debug/main.o (alarm_init)
/home/solisjose46/Desktop/SER486/github/project3/lib_projc.a(config.o)
                              obj/Debug/util.o (config_set_modified)
/home/solisjose46/Desktop/SER486/github/project3/lib_projc.a(delay.o)
                              obj/Debug/main.o (delay_isdone)
/home/solisjose46/Desktop/SER486/github/project3/lib_projc.a(eeprom.o)
                              /home/solisjose46/Desktop/SER486/github/project3/lib_projc.a(config.o) (eeprom_writebuf)
/home/solisjose46/Desktop/SER486/github/project3/lib_projc.a(led.o)
                              obj/Debug/main.o (led_init)
/home/solisjose46/Desktop/SER486/github/project3/lib_projc.a(log.o)
                              obj/Debug/main.o (log_init)
/home/solisjose46/Desktop/SER486/github/project3/lib_projc.a(rtc.o)
                              obj/Debug/main.o (rtc_init)
/home/solisjose46/Desktop/SER486/github/project3/lib_projc.a(str.o)
                              /home/solisjose46/Desktop/SER486/github/project3/lib_projc.a(rtc.o) (str_cpy)
/home/solisjose46/Desktop/SER486/github/project3/lib_projc.a(temp.o)
                              obj/Debug/main.o (temp_init)
/home/solisjose46/Desktop/SER486/github/project3/lib_projc.a(timer1.o)
                              /home/solisjose46/Desktop/SER486/github/project3/lib_projc.a(rtc.o) (timer1_init)
/home/solisjose46/Desktop/SER486/github/project3/lib_projc.a(uart.o)
                              obj/Debug/main.o (uart_init)
/home/solisjose46/Desktop/SER486/github/project3/lib_projc.a(uartsocket.o)
                              obj/Debug/main.o (uartsocket_writestr)
/home/solisjose46/Desktop/SER486/github/project3/lib_projc.a(util.o)
                              /home/solisjose46/Desktop/SER486/github/project3/lib_projc.a(uartsocket.o) (str_cmp)
/home/solisjose46/Desktop/SER486/github/project3/lib_projc.a(vpd.o)
                              /home/solisjose46/Desktop/SER486/github/project3/lib_projc.a(uartsocket.o) (vpd)
/home/solisjose46/Desktop/SER486/github/project3/lib_projc.a(serial.o)
                              /home/solisjose46/Desktop/SER486/github/project3/lib_projc.a(uart.o) (serial_init)
/usr/lib/gcc/avr/5.4.0/avr5/libgcc.a(_mulsi3.o)
                              /home/solisjose46/Desktop/SER486/github/project3/lib_projc.a(rtc.o) (__mulsi3)
/usr/lib/gcc/avr/5.4.0/avr5/libgcc.a(_udivmodhi4.o)
                              /home/solisjose46/Desktop/SER486/github/project3/lib_projc.a(rtc.o) (__udivmodhi4)
/usr/lib/gcc/avr/5.4.0/avr5/libgcc.a(_divmodhi4.o)
                              /home/solisjose46/Desktop/SER486/github/project3/lib_projc.a(log.o) (__divmodhi4)
/usr/lib/gcc/avr/5.4.0/avr5/libgcc.a(_udivmodsi4.o)
                              /home/solisjose46/Desktop/SER486/github/project3/lib_projc.a(rtc.o) (__udivmodsi4)
/usr/lib/gcc/avr/5.4.0/avr5/libgcc.a(_divmodsi4.o)
                              /home/solisjose46/Desktop/SER486/github/project3/lib_projc.a(temp.o) (__divmodsi4)
/usr/lib/gcc/avr/5.4.0/avr5/libgcc.a(_negsi2.o)
                              /usr/lib/gcc/avr/5.4.0/avr5/libgcc.a(_divmodsi4.o) (__negsi2)
/usr/lib/gcc/avr/5.4.0/avr5/libgcc.a(_exit.o)
                              /usr/lib/gcc/avr/5.4.0/../../../avr/lib/avr5/crtatmega328p.o (exit)
/usr/lib/gcc/avr/5.4.0/avr5/libgcc.a(_tablejump2.o)
                              obj/Debug/tempfsm.o (__tablejump2__)
/usr/lib/gcc/avr/5.4.0/avr5/libgcc.a(_copy_data.o)
                              obj/Debug/main.o (__do_copy_data)
/usr/lib/gcc/avr/5.4.0/avr5/libgcc.a(_clear_bss.o)
                              obj/Debug/tempfsm.o (__do_clear_bss)
/usr/lib/gcc/avr/5.4.0/avr5/libgcc.a(_umulhisi3.o)
                              /home/solisjose46/Desktop/SER486/github/project3/lib_projc.a(rtc.o) (__umulhisi3)
/usr/lib/gcc/avr/5.4.0/avr5/libgcc.a(_muluhisi3.o)
                              /home/solisjose46/Desktop/SER486/github/project3/lib_projc.a(rtc.o) (__muluhisi3)

Allocating common symbols
Common symbol       size              file

rxbuf               0x40              /home/solisjose46/Desktop/SER486/github/project3/lib_projc.a(serial.o)
write_busy          0x1               /home/solisjose46/Desktop/SER486/github/project3/lib_projc.a(eeprom.o)
vpd                 0x37              /home/solisjose46/Desktop/SER486/github/project3/lib_projc.a(vpd.o)
writeaddr           0x2               /home/solisjose46/Desktop/SER486/github/project3/lib_projc.a(eeprom.o)
rtc_base            0x4               /home/solisjose46/Desktop/SER486/github/project3/lib_projc.a(rtc.o)
writesize           0x1               /home/solisjose46/Desktop/SER486/github/project3/lib_projc.a(eeprom.o)
writebuf            0x40              /home/solisjose46/Desktop/SER486/github/project3/lib_projc.a(eeprom.o)
txbuf               0x40              /home/solisjose46/Desktop/SER486/github/project3/lib_projc.a(serial.o)
bufidx              0x1               /home/solisjose46/Desktop/SER486/github/project3/lib_projc.a(eeprom.o)
config              0x12              obj/Debug/util.o

Memory Configuration

Name             Origin             Length             Attributes
text             0x0000000000000000 0x0000000000020000 xr
data             0x0000000000800060 0x000000000000ffa0 rw !x
eeprom           0x0000000000810000 0x0000000000010000 rw !x
fuse             0x0000000000820000 0x0000000000000003 rw !x
lock             0x0000000000830000 0x0000000000000400 rw !x
signature        0x0000000000840000 0x0000000000000400 rw !x
user_signatures  0x0000000000850000 0x0000000000000400 rw !x
*default*        0x0000000000000000 0xffffffffffffffff

Linker script and memory map

Address of section .data set to 0x800100
LOAD /usr/lib/gcc/avr/5.4.0/../../../avr/lib/avr5/crtatmega328p.o
LOAD obj/Debug/main.o
LOAD obj/Debug/tempfsm.o
LOAD obj/Debug/util.o
LOAD obj/Debug/wdt.o
LOAD /home/solisjose46/Desktop/SER486/github/project3/lib_projc.a
LOAD /usr/lib/gcc/avr/5.4.0/avr5/libgcc.a
LOAD /usr/lib/gcc/avr/5.4.0/../../../avr/lib/avr5/libm.a
START GROUP
LOAD /usr/lib/gcc/avr/5.4.0/avr5/libgcc.a
LOAD /usr/lib/gcc/avr/5.4.0/../../../avr/lib/avr5/libm.a
LOAD /usr/lib/gcc/avr/5.4.0/../../../avr/lib/avr5/libc.a
LOAD /usr/lib/gcc/avr/5.4.0/../../../avr/lib/avr5/libatmega328p.a
END GROUP
                0x0000000000020000                __TEXT_REGION_LENGTH__ = DEFINED (__TEXT_REGION_LENGTH__)?__TEXT_REGION_LENGTH__:0x20000
                0x000000000000ffa0                __DATA_REGION_LENGTH__ = DEFINED (__DATA_REGION_LENGTH__)?__DATA_REGION_LENGTH__:0xffa0
                0x0000000000010000                __EEPROM_REGION_LENGTH__ = DEFINED (__EEPROM_REGION_LENGTH__)?__EEPROM_REGION_LENGTH__:0x10000
                [0x0000000000000003]                __FUSE_REGION_LENGTH__ = DEFINED (__FUSE_REGION_LENGTH__)?__FUSE_REGION_LENGTH__:0x400
                0x0000000000000400                __LOCK_REGION_LENGTH__ = DEFINED (__LOCK_REGION_LENGTH__)?__LOCK_REGION_LENGTH__:0x400
                0x0000000000000400                __SIGNATURE_REGION_LENGTH__ = DEFINED (__SIGNATURE_REGION_LENGTH__)?__SIGNATURE_REGION_LENGTH__:0x400
                0x0000000000000400                __USER_SIGNATURE_REGION_LENGTH__ = DEFINED (__USER_SIGNATURE_REGION_LENGTH__)?__USER_SIGNATURE_REGION_LENGTH__:0x400

.hash
 *(.hash)

.dynsym
 *(.dynsym)

.dynstr
 *(.dynstr)

.gnu.version
 *(.gnu.version)

.gnu.version_d
 *(.gnu.version_d)

.gnu.version_r
 *(.gnu.version_r)

.rel.init
 *(.rel.init)

.rela.init
 *(.rela.init)

.rel.text
 *(.rel.text)
 *(.rel.text.*)
 *(.rel.gnu.linkonce.t*)

.rela.text
 *(.rela.text)
 *(.rela.text.*)
 *(.rela.gnu.linkonce.t*)

.rel.fini
 *(.rel.fini)

.rela.fini
 *(.rela.fini)

.rel.rodata
 *(.rel.rodata)
 *(.rel.rodata.*)
 *(.rel.gnu.linkonce.r*)

.rela.rodata
 *(.rela.rodata)
 *(.rela.rodata.*)
 *(.rela.gnu.linkonce.r*)

.rel.data
 *(.rel.data)
 *(.rel.data.*)
 *(.rel.gnu.linkonce.d*)

.rela.data
 *(.rela.data)
 *(.rela.data.*)
 *(.rela.gnu.linkonce.d*)

.rel.ctors
 *(.rel.ctors)

.rela.ctors
 *(.rela.ctors)

.rel.dtors
 *(.rel.dtors)

.rela.dtors
 *(.rela.dtors)

.rel.got
 *(.rel.got)

.rela.got
 *(.rela.got)

.rel.bss
 *(.rel.bss)

.rela.bss
 *(.rela.bss)

.rel.plt
 *(.rel.plt)

.rela.plt
 *(.rela.plt)

.text           0x0000000000000000     0x2a16
 *(.vectors)
 .vectors       0x0000000000000000       0x68 /usr/lib/gcc/avr/5.4.0/../../../avr/lib/avr5/crtatmega328p.o
                0x0000000000000000                __vectors
                0x0000000000000000                __vector_default
 *(.vectors)
 *(.progmem.gcc*)
 .progmem.gcc_sw_table
                0x0000000000000068       0x12 obj/Debug/tempfsm.o
                0x000000000000007a                . = ALIGN (0x2)
                0x000000000000007a                __trampolines_start = .
 *(.trampolines)
 .trampolines   0x000000000000007a        0x0 linker stubs
 *(.trampolines*)
                0x000000000000007a                __trampolines_end = .
 *libprintf_flt.a:*(.progmem.data)
 *libc.a:*(.progmem.data)
 *(.progmem*)
                0x000000000000007a                . = ALIGN (0x2)
 *(.jumptables)
 *(.jumptables*)
 *(.lowtext)
 *(.lowtext*)
                0x000000000000007a                __ctors_start = .
 *(.ctors)
                0x000000000000007a                __ctors_end = .
                0x000000000000007a                __dtors_start = .
 *(.dtors)
                0x000000000000007a                __dtors_end = .
 SORT(*)(.ctors)
 SORT(*)(.dtors)
 *(.init0)
 .init0         0x000000000000007a        0x0 /usr/lib/gcc/avr/5.4.0/../../../avr/lib/avr5/crtatmega328p.o
                0x000000000000007a                __init
 *(.init0)
 *(.init1)
 *(.init1)
 *(.init2)
 .init2         0x000000000000007a        0xc /usr/lib/gcc/avr/5.4.0/../../../avr/lib/avr5/crtatmega328p.o
 *(.init2)
 *(.init3)
 *(.init3)
 *(.init4)
 .init4         0x0000000000000086       0x16 /usr/lib/gcc/avr/5.4.0/avr5/libgcc.a(_copy_data.o)
                0x0000000000000086                __do_copy_data
 .init4         0x000000000000009c       0x10 /usr/lib/gcc/avr/5.4.0/avr5/libgcc.a(_clear_bss.o)
                0x000000000000009c                __do_clear_bss
 *(.init4)
 *(.init5)
 *(.init5)
 *(.init6)
 *(.init6)
 *(.init7)
 *(.init7)
 *(.init8)
 *(.init8)
 *(.init9)
 .init9         0x00000000000000ac        0x8 /usr/lib/gcc/avr/5.4.0/../../../avr/lib/avr5/crtatmega328p.o
 *(.init9)
 *(.text)
 .text          0x00000000000000b4        0x4 /usr/lib/gcc/avr/5.4.0/../../../avr/lib/avr5/crtatmega328p.o
                0x00000000000000b4                __vector_1
                0x00000000000000b4                __vector_24
                0x00000000000000b4                __vector_12
                0x00000000000000b4                __bad_interrupt
                0x00000000000000b4                __vector_3
                0x00000000000000b4                __vector_23
                0x00000000000000b4                __vector_25
                0x00000000000000b4                __vector_13
                0x00000000000000b4                __vector_17
                0x00000000000000b4                __vector_7
                0x00000000000000b4                __vector_5
                0x00000000000000b4                __vector_4
                0x00000000000000b4                __vector_9
                0x00000000000000b4                __vector_2
                0x00000000000000b4                __vector_21
                0x00000000000000b4                __vector_15
                0x00000000000000b4                __vector_8
                0x00000000000000b4                __vector_10
                0x00000000000000b4                __vector_16
                0x00000000000000b4                __vector_20
 .text          0x00000000000000b8      0x120 obj/Debug/main.o
                0x00000000000000b8                main
 .text          0x00000000000001d8      0x388 obj/Debug/tempfsm.o
                0x00000000000001d8                tempfsm_update
                0x0000000000000530                tempfsm_reset
                0x0000000000000548                tempfsm_init
 .text          0x0000000000000560      0x14a obj/Debug/util.o
                0x0000000000000560                update_tcrit_hi
                0x00000000000005b2                update_twarn_hi
                0x000000000000060c                update_tcrit_lo
                0x0000000000000650                update_twarn_lo
 .text          0x00000000000006aa       0x7a obj/Debug/wdt.o
                0x00000000000006aa                wdt_init
                0x00000000000006bc                wdt_reset
                0x00000000000006c0                wdt_force_restart
                0x00000000000006ca                __vector_6
 .text          0x0000000000000724       0x26 /home/solisjose46/Desktop/SER486/github/project3/lib_projc.a(alarm.o)
                0x0000000000000724                alarm_init
                0x0000000000000726                alarm_send
 .text          0x000000000000074a       0xf0 /home/solisjose46/Desktop/SER486/github/project3/lib_projc.a(config.o)
                0x000000000000074a                config_set_modified
                0x0000000000000752                config_is_data_valid
                0x0000000000000792                config_write_defaults
                0x00000000000007ac                config_init
                0x00000000000007e2                config_update
                0x0000000000000812                config_update_noisr
 .text          0x000000000000083a      0x19e /home/solisjose46/Desktop/SER486/github/project3/lib_projc.a(delay.o)
                0x000000000000083a                __vector_14
                0x00000000000008dc                delay_init
                0x0000000000000900                delay_get
                0x0000000000000920                delay_isdone
                0x0000000000000952                delay_set
                0x00000000000009a6                millis
 .text          0x00000000000009d8      0x12c /home/solisjose46/Desktop/SER486/github/project3/lib_projc.a(eeprom.o)
                0x00000000000009d8                eeprom_startwrite
                0x00000000000009de                __vector_22
                0x0000000000000a6a                eeprom_writebuf
                0x0000000000000aa4                eeprom_writebuf_noisr
                0x0000000000000ad2                eeprom_readbuf
                0x0000000000000afc                eeprom_isbusy
 .text          0x0000000000000b04       0xfc /home/solisjose46/Desktop/SER486/github/project3/lib_projc.a(led.o)
                0x0000000000000b04                led_init
                0x0000000000000b16                led_on
                0x0000000000000b1a                led_off
                0x0000000000000b1e                led_set_blink
                0x0000000000000b42                led_update
                0x0000000000000bf6                led_is_on
 .text          0x0000000000000c00      0x43c /home/solisjose46/Desktop/SER486/github/project3/lib_projc.a(log.o)
                0x0000000000000c00                log_is_data_valid
                0x0000000000000c4c                log_init
                0x0000000000000dd6                log_update
                0x0000000000000e42                log_update_noisr
                0x0000000000000ea6                log_add_record
                0x0000000000000f48                log_clear
                0x0000000000000f82                log_get_num_entries
                0x0000000000000fb4                log_get_record
 .text          0x000000000000103c      0x5d8 /home/solisjose46/Desktop/SER486/github/project3/lib_projc.a(rtc.o)
                0x000000000000103c                rtc_init
                0x0000000000001040                rtc_get_date
                0x0000000000001044                rtc_set_date
                0x0000000000001058                is_leapyear
                0x000000000000108c                rtc_set_by_datestr
                0x0000000000001356                get_month
                0x00000000000013e6                rtc_num2datestr
                0x00000000000015ec                rtc_get_date_string
 .text          0x0000000000001614      0x144 /home/solisjose46/Desktop/SER486/github/project3/lib_projc.a(str.o)
                0x0000000000001614                mem_cpy
                0x000000000000162c                mem_set
                0x0000000000001640                mem_cmp
                0x000000000000166e                str_cpy
                0x0000000000001682                str_len
                0x0000000000001694                str_writeudec16
 .text          0x0000000000001758       0x6e /home/solisjose46/Desktop/SER486/github/project3/lib_projc.a(temp.o)
                0x0000000000001758                temp_init
                0x0000000000001766                temp_is_data_ready
                0x000000000000177c                temp_start
                0x0000000000001788                temp_get
 .text          0x00000000000017c6       0x9a /home/solisjose46/Desktop/SER486/github/project3/lib_projc.a(timer1.o)
                0x00000000000017c6                __vector_11
                0x0000000000001810                timer1_init
                0x0000000000001830                timer1_get
                0x0000000000001848                timer1_clear
 .text          0x0000000000001860      0x23c /home/solisjose46/Desktop/SER486/github/project3/lib_projc.a(uart.o)
                0x0000000000001860                uart_init
                0x0000000000001868                uart_writechar
                0x000000000000186c                uart_writestr
                0x0000000000001884                uart_writehex8
                0x00000000000018b6                uart_writehex16
                0x00000000000018c8                uart_writedec32
                0x00000000000019f0                uart_is_connected
                0x00000000000019f4                uart_is_packet_available
                0x00000000000019f8                uart_readpacket
                0x0000000000001a58                uart_writeip
 .text          0x0000000000001a9c      0x72e /home/solisjose46/Desktop/SER486/github/project3/lib_projc.a(uartsocket.o)
                0x0000000000001b3e                uartsocket_writechar
                0x0000000000001b42                uartsocket_writestr
                0x0000000000001b46                uartsocket_writehex8
                0x0000000000001b4a                uartsocket_writehex16
                0x0000000000001b4e                uartsocket_writedec32
                0x0000000000001b52                uartsocket_is_connected
                0x0000000000001b56                uartsocket_is_packet_available
                0x0000000000001b5a                uartsocket_readpacket
                0x0000000000001bde                parse_and_send_response
 .text          0x00000000000021ca      0x214 /home/solisjose46/Desktop/SER486/github/project3/lib_projc.a(util.o)
                0x00000000000021ca                str_cmp
                0x0000000000002200                update_checksum
                0x0000000000002228                random_seed
                0x000000000000225e                random
                0x0000000000002360                strtoi
 .text          0x00000000000023de       0xc6 /home/solisjose46/Desktop/SER486/github/project3/lib_projc.a(vpd.o)
                0x00000000000023de                vpd_is_data_valid
                0x000000000000241e                vpd_write_defaults
                0x0000000000002472                vpd_init
 .text          0x00000000000024a4      0x43c /home/solisjose46/Desktop/SER486/github/project3/lib_projc.a(serial.o)
                0x00000000000024a4                serial_init
                0x00000000000024ca                __vector_18
                0x000000000000271a                __vector_19
                0x0000000000002780                serial_rxchars
                0x000000000000278e                serial_popchar
                0x00000000000027d8                serial_isconnected
                0x0000000000002826                serial_is_packet_ready
                0x000000000000282c                serial_writechar
                0x000000000000288c                serial_writestr
                0x00000000000028b6                serial_writestr_P
 .text          0x00000000000028e0        0x0 /usr/lib/gcc/avr/5.4.0/avr5/libgcc.a(_mulsi3.o)
 .text          0x00000000000028e0        0x0 /usr/lib/gcc/avr/5.4.0/avr5/libgcc.a(_udivmodhi4.o)
 .text          0x00000000000028e0        0x0 /usr/lib/gcc/avr/5.4.0/avr5/libgcc.a(_divmodhi4.o)
 .text          0x00000000000028e0        0x0 /usr/lib/gcc/avr/5.4.0/avr5/libgcc.a(_udivmodsi4.o)
 .text          0x00000000000028e0        0x0 /usr/lib/gcc/avr/5.4.0/avr5/libgcc.a(_divmodsi4.o)
 .text          0x00000000000028e0        0x0 /usr/lib/gcc/avr/5.4.0/avr5/libgcc.a(_negsi2.o)
 .text          0x00000000000028e0        0x0 /usr/lib/gcc/avr/5.4.0/avr5/libgcc.a(_exit.o)
 .text          0x00000000000028e0        0x0 /usr/lib/gcc/avr/5.4.0/avr5/libgcc.a(_tablejump2.o)
 .text          0x00000000000028e0        0x0 /usr/lib/gcc/avr/5.4.0/avr5/libgcc.a(_copy_data.o)
 .text          0x00000000000028e0        0x0 /usr/lib/gcc/avr/5.4.0/avr5/libgcc.a(_clear_bss.o)
 .text          0x00000000000028e0        0x0 /usr/lib/gcc/avr/5.4.0/avr5/libgcc.a(_umulhisi3.o)
 .text          0x00000000000028e0        0x0 /usr/lib/gcc/avr/5.4.0/avr5/libgcc.a(_muluhisi3.o)
                0x00000000000028e0                . = ALIGN (0x2)
 *(.text.*)
 .text.libgcc.mul
                0x00000000000028e0       0x20 /usr/lib/gcc/avr/5.4.0/avr5/libgcc.a(_mulsi3.o)
                0x00000000000028e0                __mulsi3
 .text.libgcc.div
                0x0000000000002900        0x0 /usr/lib/gcc/avr/5.4.0/avr5/libgcc.a(_mulsi3.o)
 .text.libgcc   0x0000000000002900        0x0 /usr/lib/gcc/avr/5.4.0/avr5/libgcc.a(_mulsi3.o)
 .text.libgcc.prologue
                0x0000000000002900        0x0 /usr/lib/gcc/avr/5.4.0/avr5/libgcc.a(_mulsi3.o)
 .text.libgcc.builtins
                0x0000000000002900        0x0 /usr/lib/gcc/avr/5.4.0/avr5/libgcc.a(_mulsi3.o)
 .text.libgcc.fmul
                0x0000000000002900        0x0 /usr/lib/gcc/avr/5.4.0/avr5/libgcc.a(_mulsi3.o)
 .text.libgcc.fixed
                0x0000000000002900        0x0 /usr/lib/gcc/avr/5.4.0/avr5/libgcc.a(_mulsi3.o)
 .text.libgcc.mul
                0x0000000000002900        0x0 /usr/lib/gcc/avr/5.4.0/avr5/libgcc.a(_udivmodhi4.o)
 .text.libgcc.div
                0x0000000000002900       0x28 /usr/lib/gcc/avr/5.4.0/avr5/libgcc.a(_udivmodhi4.o)
                0x0000000000002900                __udivmodhi4
 .text.libgcc   0x0000000000002928        0x0 /usr/lib/gcc/avr/5.4.0/avr5/libgcc.a(_udivmodhi4.o)
 .text.libgcc.prologue
                0x0000000000002928        0x0 /usr/lib/gcc/avr/5.4.0/avr5/libgcc.a(_udivmodhi4.o)
 .text.libgcc.builtins
                0x0000000000002928        0x0 /usr/lib/gcc/avr/5.4.0/avr5/libgcc.a(_udivmodhi4.o)
 .text.libgcc.fmul
                0x0000000000002928        0x0 /usr/lib/gcc/avr/5.4.0/avr5/libgcc.a(_udivmodhi4.o)
 .text.libgcc.fixed
                0x0000000000002928        0x0 /usr/lib/gcc/avr/5.4.0/avr5/libgcc.a(_udivmodhi4.o)
 .text.libgcc.mul
                0x0000000000002928        0x0 /usr/lib/gcc/avr/5.4.0/avr5/libgcc.a(_divmodhi4.o)
 .text.libgcc.div
                0x0000000000002928       0x28 /usr/lib/gcc/avr/5.4.0/avr5/libgcc.a(_divmodhi4.o)
                0x0000000000002928                __divmodhi4
                0x0000000000002928                _div
 .text.libgcc   0x0000000000002950        0x0 /usr/lib/gcc/avr/5.4.0/avr5/libgcc.a(_divmodhi4.o)
 .text.libgcc.prologue
                0x0000000000002950        0x0 /usr/lib/gcc/avr/5.4.0/avr5/libgcc.a(_divmodhi4.o)
 .text.libgcc.builtins
                0x0000000000002950        0x0 /usr/lib/gcc/avr/5.4.0/avr5/libgcc.a(_divmodhi4.o)
 .text.libgcc.fmul
                0x0000000000002950        0x0 /usr/lib/gcc/avr/5.4.0/avr5/libgcc.a(_divmodhi4.o)
 .text.libgcc.fixed
                0x0000000000002950        0x0 /usr/lib/gcc/avr/5.4.0/avr5/libgcc.a(_divmodhi4.o)
 .text.libgcc.mul
                0x0000000000002950        0x0 /usr/lib/gcc/avr/5.4.0/avr5/libgcc.a(_udivmodsi4.o)
 .text.libgcc.div
                0x0000000000002950       0x44 /usr/lib/gcc/avr/5.4.0/avr5/libgcc.a(_udivmodsi4.o)
                0x0000000000002950                __udivmodsi4
 .text.libgcc   0x0000000000002994        0x0 /usr/lib/gcc/avr/5.4.0/avr5/libgcc.a(_udivmodsi4.o)
 .text.libgcc.prologue
                0x0000000000002994        0x0 /usr/lib/gcc/avr/5.4.0/avr5/libgcc.a(_udivmodsi4.o)
 .text.libgcc.builtins
                0x0000000000002994        0x0 /usr/lib/gcc/avr/5.4.0/avr5/libgcc.a(_udivmodsi4.o)
 .text.libgcc.fmul
                0x0000000000002994        0x0 /usr/lib/gcc/avr/5.4.0/avr5/libgcc.a(_udivmodsi4.o)
 .text.libgcc.fixed
                0x0000000000002994        0x0 /usr/lib/gcc/avr/5.4.0/avr5/libgcc.a(_udivmodsi4.o)
 .text.libgcc.mul
                0x0000000000002994        0x0 /usr/lib/gcc/avr/5.4.0/avr5/libgcc.a(_divmodsi4.o)
 .text.libgcc.div
                0x0000000000002994       0x2e /usr/lib/gcc/avr/5.4.0/avr5/libgcc.a(_divmodsi4.o)
                0x0000000000002994                __divmodsi4
 .text.libgcc   0x00000000000029c2        0x0 /usr/lib/gcc/avr/5.4.0/avr5/libgcc.a(_divmodsi4.o)
 .text.libgcc.prologue
                0x00000000000029c2        0x0 /usr/lib/gcc/avr/5.4.0/avr5/libgcc.a(_divmodsi4.o)
 .text.libgcc.builtins
                0x00000000000029c2        0x0 /usr/lib/gcc/avr/5.4.0/avr5/libgcc.a(_divmodsi4.o)
 .text.libgcc.fmul
                0x00000000000029c2        0x0 /usr/lib/gcc/avr/5.4.0/avr5/libgcc.a(_divmodsi4.o)
 .text.libgcc.fixed
                0x00000000000029c2        0x0 /usr/lib/gcc/avr/5.4.0/avr5/libgcc.a(_divmodsi4.o)
 .text.libgcc.mul
                0x00000000000029c2        0x0 /usr/lib/gcc/avr/5.4.0/avr5/libgcc.a(_negsi2.o)
 .text.libgcc.div
                0x00000000000029c2       0x10 /usr/lib/gcc/avr/5.4.0/avr5/libgcc.a(_negsi2.o)
                0x00000000000029c2                __negsi2
 .text.libgcc   0x00000000000029d2        0x0 /usr/lib/gcc/avr/5.4.0/avr5/libgcc.a(_negsi2.o)
 .text.libgcc.prologue
                0x00000000000029d2        0x0 /usr/lib/gcc/avr/5.4.0/avr5/libgcc.a(_negsi2.o)
 .text.libgcc.builtins
                0x00000000000029d2        0x0 /usr/lib/gcc/avr/5.4.0/avr5/libgcc.a(_negsi2.o)
 .text.libgcc.fmul
                0x00000000000029d2        0x0 /usr/lib/gcc/avr/5.4.0/avr5/libgcc.a(_negsi2.o)
 .text.libgcc.fixed
                0x00000000000029d2        0x0 /usr/lib/gcc/avr/5.4.0/avr5/libgcc.a(_negsi2.o)
 .text.libgcc.mul
                0x00000000000029d2        0x0 /usr/lib/gcc/avr/5.4.0/avr5/libgcc.a(_exit.o)
 .text.libgcc.div
                0x00000000000029d2        0x0 /usr/lib/gcc/avr/5.4.0/avr5/libgcc.a(_exit.o)
 .text.libgcc   0x00000000000029d2        0x0 /usr/lib/gcc/avr/5.4.0/avr5/libgcc.a(_exit.o)
 .text.libgcc.prologue
                0x00000000000029d2        0x0 /usr/lib/gcc/avr/5.4.0/avr5/libgcc.a(_exit.o)
 .text.libgcc.builtins
                0x00000000000029d2        0x0 /usr/lib/gcc/avr/5.4.0/avr5/libgcc.a(_exit.o)
 .text.libgcc.fmul
                0x00000000000029d2        0x0 /usr/lib/gcc/avr/5.4.0/avr5/libgcc.a(_exit.o)
 .text.libgcc.fixed
                0x00000000000029d2        0x0 /usr/lib/gcc/avr/5.4.0/avr5/libgcc.a(_exit.o)
 .text.libgcc.mul
                0x00000000000029d2        0x0 /usr/lib/gcc/avr/5.4.0/avr5/libgcc.a(_tablejump2.o)
 .text.libgcc.div
                0x00000000000029d2        0x0 /usr/lib/gcc/avr/5.4.0/avr5/libgcc.a(_tablejump2.o)
 .text.libgcc   0x00000000000029d2        0xc /usr/lib/gcc/avr/5.4.0/avr5/libgcc.a(_tablejump2.o)
                0x00000000000029d2                __tablejump2__
 .text.libgcc.prologue
                0x00000000000029de        0x0 /usr/lib/gcc/avr/5.4.0/avr5/libgcc.a(_tablejump2.o)
 .text.libgcc.builtins
                0x00000000000029de        0x0 /usr/lib/gcc/avr/5.4.0/avr5/libgcc.a(_tablejump2.o)
 .text.libgcc.fmul
                0x00000000000029de        0x0 /usr/lib/gcc/avr/5.4.0/avr5/libgcc.a(_tablejump2.o)
 .text.libgcc.fixed
                0x00000000000029de        0x0 /usr/lib/gcc/avr/5.4.0/avr5/libgcc.a(_tablejump2.o)
 .text.libgcc.mul
                0x00000000000029de        0x0 /usr/lib/gcc/avr/5.4.0/avr5/libgcc.a(_copy_data.o)
 .text.libgcc.div
                0x00000000000029de        0x0 /usr/lib/gcc/avr/5.4.0/avr5/libgcc.a(_copy_data.o)
 .text.libgcc   0x00000000000029de        0x0 /usr/lib/gcc/avr/5.4.0/avr5/libgcc.a(_copy_data.o)
 .text.libgcc.prologue
                0x00000000000029de        0x0 /usr/lib/gcc/avr/5.4.0/avr5/libgcc.a(_copy_data.o)
 .text.libgcc.builtins
                0x00000000000029de        0x0 /usr/lib/gcc/avr/5.4.0/avr5/libgcc.a(_copy_data.o)
 .text.libgcc.fmul
                0x00000000000029de        0x0 /usr/lib/gcc/avr/5.4.0/avr5/libgcc.a(_copy_data.o)
 .text.libgcc.fixed
                0x00000000000029de        0x0 /usr/lib/gcc/avr/5.4.0/avr5/libgcc.a(_copy_data.o)
 .text.libgcc.mul
                0x00000000000029de        0x0 /usr/lib/gcc/avr/5.4.0/avr5/libgcc.a(_clear_bss.o)
 .text.libgcc.div
                0x00000000000029de        0x0 /usr/lib/gcc/avr/5.4.0/avr5/libgcc.a(_clear_bss.o)
 .text.libgcc   0x00000000000029de        0x0 /usr/lib/gcc/avr/5.4.0/avr5/libgcc.a(_clear_bss.o)
 .text.libgcc.prologue
                0x00000000000029de        0x0 /usr/lib/gcc/avr/5.4.0/avr5/libgcc.a(_clear_bss.o)
 .text.libgcc.builtins
                0x00000000000029de        0x0 /usr/lib/gcc/avr/5.4.0/avr5/libgcc.a(_clear_bss.o)
 .text.libgcc.fmul
                0x00000000000029de        0x0 /usr/lib/gcc/avr/5.4.0/avr5/libgcc.a(_clear_bss.o)
 .text.libgcc.fixed
                0x00000000000029de        0x0 /usr/lib/gcc/avr/5.4.0/avr5/libgcc.a(_clear_bss.o)
 .text.libgcc.mul
                0x00000000000029de       0x1e /usr/lib/gcc/avr/5.4.0/avr5/libgcc.a(_umulhisi3.o)
                0x00000000000029de                __umulhisi3
 .text.libgcc.div
                0x00000000000029fc        0x0 /usr/lib/gcc/avr/5.4.0/avr5/libgcc.a(_umulhisi3.o)
 .text.libgcc   0x00000000000029fc        0x0 /usr/lib/gcc/avr/5.4.0/avr5/libgcc.a(_umulhisi3.o)
 .text.libgcc.prologue
                0x00000000000029fc        0x0 /usr/lib/gcc/avr/5.4.0/avr5/libgcc.a(_umulhisi3.o)
 .text.libgcc.builtins
                0x00000000000029fc        0x0 /usr/lib/gcc/avr/5.4.0/avr5/libgcc.a(_umulhisi3.o)
 .text.libgcc.fmul
                0x00000000000029fc        0x0 /usr/lib/gcc/avr/5.4.0/avr5/libgcc.a(_umulhisi3.o)
 .text.libgcc.fixed
                0x00000000000029fc        0x0 /usr/lib/gcc/avr/5.4.0/avr5/libgcc.a(_umulhisi3.o)
 .text.libgcc.mul
                0x00000000000029fc       0x16 /usr/lib/gcc/avr/5.4.0/avr5/libgcc.a(_muluhisi3.o)
                0x00000000000029fc                __muluhisi3
 .text.libgcc.div
                0x0000000000002a12        0x0 /usr/lib/gcc/avr/5.4.0/avr5/libgcc.a(_muluhisi3.o)
 .text.libgcc   0x0000000000002a12        0x0 /usr/lib/gcc/avr/5.4.0/avr5/libgcc.a(_muluhisi3.o)
 .text.libgcc.prologue
                0x0000000000002a12        0x0 /usr/lib/gcc/avr/5.4.0/avr5/libgcc.a(_muluhisi3.o)
 .text.libgcc.builtins
                0x0000000000002a12        0x0 /usr/lib/gcc/avr/5.4.0/avr5/libgcc.a(_muluhisi3.o)
 .text.libgcc.fmul
                0x0000000000002a12        0x0 /usr/lib/gcc/avr/5.4.0/avr5/libgcc.a(_muluhisi3.o)
 .text.libgcc.fixed
                0x0000000000002a12        0x0 /usr/lib/gcc/avr/5.4.0/avr5/libgcc.a(_muluhisi3.o)
                0x0000000000002a12                . = ALIGN (0x2)
 *(.fini9)
 .fini9         0x0000000000002a12        0x0 /usr/lib/gcc/avr/5.4.0/avr5/libgcc.a(_exit.o)
                0x0000000000002a12                exit
                0x0000000000002a12                _exit
 *(.fini9)
 *(.fini8)
 *(.fini8)
 *(.fini7)
 *(.fini7)
 *(.fini6)
 *(.fini6)
 *(.fini5)
 *(.fini5)
 *(.fini4)
 *(.fini4)
 *(.fini3)
 *(.fini3)
 *(.fini2)
 *(.fini2)
 *(.fini1)
 *(.fini1)
 *(.fini0)
 .fini0         0x0000000000002a12        0x4 /usr/lib/gcc/avr/5.4.0/avr5/libgcc.a(_exit.o)
 *(.fini0)
                0x0000000000002a16                _etext = .

.siminfo        0x0000000000002a16       0x28
 .siminfo       0x0000000000002a16       0x28 /home/solisjose46/Desktop/SER486/github/project3/lib_projc.a(uart.o)
                0x0000000000002a16                siminfo_serial_out
                0x0000000000002a21                siminfo_serial_in
                0x0000000000002a2c                siminfo_cpufrequency
                0x0000000000002a32                siminfo_device

.data           0x0000000000800100      0x2c2 load address 0x0000000000002a3e
                0x0000000000800100                PROVIDE (__data_start, .)
 *(.data)
 .data          0x0000000000800100        0x0 /usr/lib/gcc/avr/5.4.0/../../../avr/lib/avr5/crtatmega328p.o
 .data          0x0000000000800100        0x2 obj/Debug/main.o
                0x0000000000800100                current_temperature
 .data          0x0000000000800102        0x0 obj/Debug/tempfsm.o
 .data          0x0000000000800102        0x0 obj/Debug/util.o
 .data          0x0000000000800102        0x0 obj/Debug/wdt.o
 .data          0x0000000000800102        0x0 /home/solisjose46/Desktop/SER486/github/project3/lib_projc.a(alarm.o)
 .data          0x0000000000800102       0x12 /home/solisjose46/Desktop/SER486/github/project3/lib_projc.a(config.o)
 .data          0x0000000000800114        0x0 /home/solisjose46/Desktop/SER486/github/project3/lib_projc.a(delay.o)
 .data          0x0000000000800114        0x0 /home/solisjose46/Desktop/SER486/github/project3/lib_projc.a(eeprom.o)
 .data          0x0000000000800114        0x0 /home/solisjose46/Desktop/SER486/github/project3/lib_projc.a(led.o)
 .data          0x0000000000800114        0x0 /home/solisjose46/Desktop/SER486/github/project3/lib_projc.a(log.o)
 .data          0x0000000000800114       0x14 /home/solisjose46/Desktop/SER486/github/project3/lib_projc.a(rtc.o)
 .data          0x0000000000800128        0x0 /home/solisjose46/Desktop/SER486/github/project3/lib_projc.a(str.o)
 .data          0x0000000000800128        0x0 /home/solisjose46/Desktop/SER486/github/project3/lib_projc.a(temp.o)
 .data          0x0000000000800128        0x0 /home/solisjose46/Desktop/SER486/github/project3/lib_projc.a(timer1.o)
 .data          0x0000000000800128        0x0 /home/solisjose46/Desktop/SER486/github/project3/lib_projc.a(uart.o)
 .data          0x0000000000800128        0x0 /home/solisjose46/Desktop/SER486/github/project3/lib_projc.a(uartsocket.o)
 .data          0x0000000000800128        0x8 /home/solisjose46/Desktop/SER486/github/project3/lib_projc.a(util.o)
 .data          0x0000000000800130        0x0 /home/solisjose46/Desktop/SER486/github/project3/lib_projc.a(vpd.o)
 .data          0x0000000000800130        0x0 /home/solisjose46/Desktop/SER486/github/project3/lib_projc.a(serial.o)
 .data          0x0000000000800130        0x0 /usr/lib/gcc/avr/5.4.0/avr5/libgcc.a(_mulsi3.o)
 .data          0x0000000000800130        0x0 /usr/lib/gcc/avr/5.4.0/avr5/libgcc.a(_udivmodhi4.o)
 .data          0x0000000000800130        0x0 /usr/lib/gcc/avr/5.4.0/avr5/libgcc.a(_divmodhi4.o)
 .data          0x0000000000800130        0x0 /usr/lib/gcc/avr/5.4.0/avr5/libgcc.a(_udivmodsi4.o)
 .data          0x0000000000800130        0x0 /usr/lib/gcc/avr/5.4.0/avr5/libgcc.a(_divmodsi4.o)
 .data          0x0000000000800130        0x0 /usr/lib/gcc/avr/5.4.0/avr5/libgcc.a(_negsi2.o)
 .data          0x0000000000800130        0x0 /usr/lib/gcc/avr/5.4.0/avr5/libgcc.a(_exit.o)
 .data          0x0000000000800130        0x0 /usr/lib/gcc/avr/5.4.0/avr5/libgcc.a(_tablejump2.o)
 .data          0x0000000000800130        0x0 /usr/lib/gcc/avr/5.4.0/avr5/libgcc.a(_copy_data.o)
 .data          0x0000000000800130        0x0 /usr/lib/gcc/avr/5.4.0/avr5/libgcc.a(_clear_bss.o)
 .data          0x0000000000800130        0x0 /usr/lib/gcc/avr/5.4.0/avr5/libgcc.a(_umulhisi3.o)
 .data          0x0000000000800130        0x0 /usr/lib/gcc/avr/5.4.0/avr5/libgcc.a(_muluhisi3.o)
 *(.data*)
 *(.rodata)
 .rodata        0x0000000000800130       0x62 obj/Debug/main.o
 .rodata        0x0000000000800192        0x6 obj/Debug/tempfsm.o
 .rodata        0x0000000000800198        0xc /home/solisjose46/Desktop/SER486/github/project3/lib_projc.a(rtc.o)
 .rodata        0x00000000008001a4       0x37 /home/solisjose46/Desktop/SER486/github/project3/lib_projc.a(vpd.o)
 *(.rodata*)
 .rodata.str1.1
                0x00000000008001db        0xa /home/solisjose46/Desktop/SER486/github/project3/lib_projc.a(alarm.o)
                                          0xd (size before relaxing)
 .rodata.str1.1
                0x00000000008001e5       0x14 /home/solisjose46/Desktop/SER486/github/project3/lib_projc.a(rtc.o)
 .rodata.str1.1
                0x00000000008001f9        0x3 /home/solisjose46/Desktop/SER486/github/project3/lib_projc.a(uart.o)
 .rodata.str1.1
                0x00000000008001f9      0x1c9 /home/solisjose46/Desktop/SER486/github/project3/lib_projc.a(uartsocket.o)
                                        0x1d6 (size before relaxing)
 *(.gnu.linkonce.d*)
                0x00000000008003c2                . = ALIGN (0x2)
                0x00000000008003c2                _edata = .
                0x00000000008003c2                PROVIDE (__data_end, .)

.bss            0x00000000008003c2      0x1f6
                0x00000000008003c2                PROVIDE (__bss_start, .)
 *(.bss)
 .bss           0x00000000008003c2        0x0 /usr/lib/gcc/avr/5.4.0/../../../avr/lib/avr5/crtatmega328p.o
 .bss           0x00000000008003c2        0x0 obj/Debug/main.o
 .bss           0x00000000008003c2        0x2 obj/Debug/tempfsm.o
 .bss           0x00000000008003c4        0x0 obj/Debug/util.o
 .bss           0x00000000008003c4        0x0 obj/Debug/wdt.o
 .bss           0x00000000008003c4        0x0 /home/solisjose46/Desktop/SER486/github/project3/lib_projc.a(alarm.o)
 .bss           0x00000000008003c4        0x1 /home/solisjose46/Desktop/SER486/github/project3/lib_projc.a(config.o)
 .bss           0x00000000008003c5        0xe /home/solisjose46/Desktop/SER486/github/project3/lib_projc.a(delay.o)
 .bss           0x00000000008003d3        0x0 /home/solisjose46/Desktop/SER486/github/project3/lib_projc.a(eeprom.o)
 .bss           0x00000000008003d3        0x5 /home/solisjose46/Desktop/SER486/github/project3/lib_projc.a(led.o)
 .bss           0x00000000008003d8       0x83 /home/solisjose46/Desktop/SER486/github/project3/lib_projc.a(log.o)
 .bss           0x000000000080045b        0x0 /home/solisjose46/Desktop/SER486/github/project3/lib_projc.a(rtc.o)
 .bss           0x000000000080045b        0x0 /home/solisjose46/Desktop/SER486/github/project3/lib_projc.a(str.o)
 .bss           0x000000000080045b        0x0 /home/solisjose46/Desktop/SER486/github/project3/lib_projc.a(temp.o)
 .bss           0x000000000080045b        0x4 /home/solisjose46/Desktop/SER486/github/project3/lib_projc.a(timer1.o)
 .bss           0x000000000080045f        0x0 /home/solisjose46/Desktop/SER486/github/project3/lib_projc.a(uart.o)
 .bss           0x000000000080045f       0x40 /home/solisjose46/Desktop/SER486/github/project3/lib_projc.a(uartsocket.o)
 .bss           0x000000000080049f        0x0 /home/solisjose46/Desktop/SER486/github/project3/lib_projc.a(util.o)
 .bss           0x000000000080049f        0x0 /home/solisjose46/Desktop/SER486/github/project3/lib_projc.a(vpd.o)
 .bss           0x000000000080049f        0x7 /home/solisjose46/Desktop/SER486/github/project3/lib_projc.a(serial.o)
                0x000000000080049f                txtail
                0x00000000008004a0                txhead
                0x00000000008004a1                rxtail
                0x00000000008004a2                rxhead
 .bss           0x00000000008004a6        0x0 /usr/lib/gcc/avr/5.4.0/avr5/libgcc.a(_mulsi3.o)
 .bss           0x00000000008004a6        0x0 /usr/lib/gcc/avr/5.4.0/avr5/libgcc.a(_udivmodhi4.o)
 .bss           0x00000000008004a6        0x0 /usr/lib/gcc/avr/5.4.0/avr5/libgcc.a(_divmodhi4.o)
 .bss           0x00000000008004a6        0x0 /usr/lib/gcc/avr/5.4.0/avr5/libgcc.a(_udivmodsi4.o)
 .bss           0x00000000008004a6        0x0 /usr/lib/gcc/avr/5.4.0/avr5/libgcc.a(_divmodsi4.o)
 .bss           0x00000000008004a6        0x0 /usr/lib/gcc/avr/5.4.0/avr5/libgcc.a(_negsi2.o)
 .bss           0x00000000008004a6        0x0 /usr/lib/gcc/avr/5.4.0/avr5/libgcc.a(_exit.o)
 .bss           0x00000000008004a6        0x0 /usr/lib/gcc/avr/5.4.0/avr5/libgcc.a(_tablejump2.o)
 .bss           0x00000000008004a6        0x0 /usr/lib/gcc/avr/5.4.0/avr5/libgcc.a(_copy_data.o)
 .bss           0x00000000008004a6        0x0 /usr/lib/gcc/avr/5.4.0/avr5/libgcc.a(_clear_bss.o)
 .bss           0x00000000008004a6        0x0 /usr/lib/gcc/avr/5.4.0/avr5/libgcc.a(_umulhisi3.o)
 .bss           0x00000000008004a6        0x0 /usr/lib/gcc/avr/5.4.0/avr5/libgcc.a(_muluhisi3.o)
 *(.bss*)
 *(COMMON)
 COMMON         0x00000000008004a6       0x12 obj/Debug/util.o
                0x00000000008004a6                config
 COMMON         0x00000000008004b8       0x45 /home/solisjose46/Desktop/SER486/github/project3/lib_projc.a(eeprom.o)
                0x00000000008004b8                write_busy
                0x00000000008004b9                writeaddr
                0x00000000008004bb                writesize
                0x00000000008004bc                writebuf
                0x00000000008004fc                bufidx
 COMMON         0x00000000008004fd        0x4 /home/solisjose46/Desktop/SER486/github/project3/lib_projc.a(rtc.o)
                0x00000000008004fd                rtc_base
 COMMON         0x0000000000800501       0x37 /home/solisjose46/Desktop/SER486/github/project3/lib_projc.a(vpd.o)
                0x0000000000800501                vpd
 COMMON         0x0000000000800538       0x80 /home/solisjose46/Desktop/SER486/github/project3/lib_projc.a(serial.o)
                0x0000000000800538                rxbuf
                0x0000000000800578                txbuf
                0x00000000008005b8                PROVIDE (__bss_end, .)
                0x0000000000002a3e                __data_load_start = LOADADDR (.data)
                0x0000000000002d00                __data_load_end = (__data_load_start + SIZEOF (.data))

.noinit         0x00000000008005b8        0x0
                [!provide]                        PROVIDE (__noinit_start, .)
 *(.noinit*)
                [!provide]                        PROVIDE (__noinit_end, .)
                0x00000000008005b8                _end = .
                [!provide]                        PROVIDE (__heap_start, .)

.eeprom         0x0000000000810000        0x0
 *(.eeprom*)
                0x0000000000810000                __eeprom_end = .

.fuse
 *(.fuse)
 *(.lfuse)
 *(.hfuse)
 *(.efuse)

.lock
 *(.lock*)

.signature
 *(.signature*)

.user_signatures
 *(.user_signatures*)

.stab           0x0000000000000000     0x168c
 *(.stab)
 .stab          0x0000000000000000      0x504 obj/Debug/main.o
 .stab          0x0000000000000504      0x828 obj/Debug/tempfsm.o
                                        0x834 (size before relaxing)
 .stab          0x0000000000000d2c      0x51c obj/Debug/util.o
                                        0x540 (size before relaxing)
 .stab          0x0000000000001248      0x444 obj/Debug/wdt.o
                                        0x468 (size before relaxing)

.stabstr        0x0000000000000000      0xcc7
 *(.stabstr)
 .stabstr       0x0000000000000000      0xcc7 obj/Debug/main.o

.stab.excl
 *(.stab.excl)

.stab.exclstr
 *(.stab.exclstr)

.stab.index
 *(.stab.index)

.stab.indexstr
 *(.stab.indexstr)

.comment        0x0000000000000000       0x11
 *(.comment)
 .comment       0x0000000000000000       0x11 obj/Debug/main.o
                                         0x12 (size before relaxing)
 .comment       0x0000000000000011       0x12 obj/Debug/tempfsm.o
 .comment       0x0000000000000011       0x12 obj/Debug/util.o
 .comment       0x0000000000000011       0x12 obj/Debug/wdt.o
 .comment       0x0000000000000011       0x12 /home/solisjose46/Desktop/SER486/github/project3/lib_projc.a(alarm.o)
 .comment       0x0000000000000011       0x12 /home/solisjose46/Desktop/SER486/github/project3/lib_projc.a(config.o)
 .comment       0x0000000000000011       0x12 /home/solisjose46/Desktop/SER486/github/project3/lib_projc.a(delay.o)
 .comment       0x0000000000000011       0x12 /home/solisjose46/Desktop/SER486/github/project3/lib_projc.a(eeprom.o)
 .comment       0x0000000000000011       0x12 /home/solisjose46/Desktop/SER486/github/project3/lib_projc.a(led.o)
 .comment       0x0000000000000011       0x12 /home/solisjose46/Desktop/SER486/github/project3/lib_projc.a(log.o)
 .comment       0x0000000000000011       0x12 /home/solisjose46/Desktop/SER486/github/project3/lib_projc.a(rtc.o)
 .comment       0x0000000000000011       0x12 /home/solisjose46/Desktop/SER486/github/project3/lib_projc.a(str.o)
 .comment       0x0000000000000011       0x12 /home/solisjose46/Desktop/SER486/github/project3/lib_projc.a(temp.o)
 .comment       0x0000000000000011       0x12 /home/solisjose46/Desktop/SER486/github/project3/lib_projc.a(timer1.o)
 .comment       0x0000000000000011       0x12 /home/solisjose46/Desktop/SER486/github/project3/lib_projc.a(uart.o)
 .comment       0x0000000000000011       0x12 /home/solisjose46/Desktop/SER486/github/project3/lib_projc.a(uartsocket.o)
 .comment       0x0000000000000011       0x12 /home/solisjose46/Desktop/SER486/github/project3/lib_projc.a(util.o)
 .comment       0x0000000000000011       0x12 /home/solisjose46/Desktop/SER486/github/project3/lib_projc.a(vpd.o)
 .comment       0x0000000000000011       0x12 /home/solisjose46/Desktop/SER486/github/project3/lib_projc.a(serial.o)

.note.gnu.avr.deviceinfo
                0x0000000000000000       0x40
 .note.gnu.avr.deviceinfo
                0x0000000000000000       0x40 /usr/lib/gcc/avr/5.4.0/../../../avr/lib/avr5/crtatmega328p.o

.note.gnu.build-id
 *(.note.gnu.build-id)

.debug
 *(.debug)

.line
 *(.line)

.debug_srcinfo
 *(.debug_srcinfo)

.debug_sfnames
 *(.debug_sfnames)

.debug_aranges
 *(.debug_aranges)

.debug_pubnames
 *(.debug_pubnames)

.debug_info     0x0000000000000000      0x5f4
 *(.debug_info .gnu.linkonce.wi.*)
 .debug_info    0x0000000000000000      0x5f4 /usr/lib/gcc/avr/5.4.0/../../../avr/lib/avr5/crtatmega328p.o

.debug_abbrev   0x0000000000000000      0x5a2
 *(.debug_abbrev)
 .debug_abbrev  0x0000000000000000      0x5a2 /usr/lib/gcc/avr/5.4.0/../../../avr/lib/avr5/crtatmega328p.o

.debug_line     0x0000000000000000       0x1a
 *(.debug_line .debug_line.* .debug_line_end)
 .debug_line    0x0000000000000000       0x1a /usr/lib/gcc/avr/5.4.0/../../../avr/lib/avr5/crtatmega328p.o

.debug_frame
 *(.debug_frame)

.debug_str      0x0000000000000000      0x208
 *(.debug_str)
 .debug_str     0x0000000000000000      0x208 /usr/lib/gcc/avr/5.4.0/../../../avr/lib/avr5/crtatmega328p.o

.debug_loc
 *(.debug_loc)

.debug_macinfo
 *(.debug_macinfo)

.debug_weaknames
 *(.debug_weaknames)

.debug_funcnames
 *(.debug_funcnames)

.debug_typenames
 *(.debug_typenames)

.debug_varnames
 *(.debug_varnames)

.debug_pubtypes
 *(.debug_pubtypes)

.debug_ranges
 *(.debug_ranges)

.debug_macro
 *(.debug_macro)
OUTPUT(bin/Debug/project3.elf elf32-avr)
LOAD linker stubs

Cross Reference Table

Symbol                                            File
__FUSE_REGION_LENGTH__                            /usr/lib/gcc/avr/5.4.0/../../../avr/lib/avr5/crtatmega328p.o
__bad_interrupt                                   /usr/lib/gcc/avr/5.4.0/../../../avr/lib/avr5/crtatmega328p.o
__bss_end                                         /usr/lib/gcc/avr/5.4.0/avr5/libgcc.a(_clear_bss.o)
__bss_start                                       /usr/lib/gcc/avr/5.4.0/avr5/libgcc.a(_clear_bss.o)
__data_end                                        /usr/lib/gcc/avr/5.4.0/avr5/libgcc.a(_copy_data.o)
__data_load_start                                 /usr/lib/gcc/avr/5.4.0/avr5/libgcc.a(_copy_data.o)
__data_start                                      /usr/lib/gcc/avr/5.4.0/avr5/libgcc.a(_copy_data.o)
__divmodhi4                                       /usr/lib/gcc/avr/5.4.0/avr5/libgcc.a(_divmodhi4.o)
                                                  /home/solisjose46/Desktop/SER486/github/project3/lib_projc.a(log.o)
__divmodsi4                                       /usr/lib/gcc/avr/5.4.0/avr5/libgcc.a(_divmodsi4.o)
                                                  /home/solisjose46/Desktop/SER486/github/project3/lib_projc.a(uart.o)
                                                  /home/solisjose46/Desktop/SER486/github/project3/lib_projc.a(temp.o)
__do_clear_bss                                    /usr/lib/gcc/avr/5.4.0/avr5/libgcc.a(_clear_bss.o)
                                                  /home/solisjose46/Desktop/SER486/github/project3/lib_projc.a(serial.o)
                                                  /home/solisjose46/Desktop/SER486/github/project3/lib_projc.a(vpd.o)
                                                  /home/solisjose46/Desktop/SER486/github/project3/lib_projc.a(uartsocket.o)
                                                  /home/solisjose46/Desktop/SER486/github/project3/lib_projc.a(timer1.o)
                                                  /home/solisjose46/Desktop/SER486/github/project3/lib_projc.a(rtc.o)
                                                  /home/solisjose46/Desktop/SER486/github/project3/lib_projc.a(log.o)
                                                  /home/solisjose46/Desktop/SER486/github/project3/lib_projc.a(led.o)
                                                  /home/solisjose46/Desktop/SER486/github/project3/lib_projc.a(eeprom.o)
                                                  /home/solisjose46/Desktop/SER486/github/project3/lib_projc.a(delay.o)
                                                  /home/solisjose46/Desktop/SER486/github/project3/lib_projc.a(config.o)
                                                  obj/Debug/util.o
                                                  obj/Debug/tempfsm.o
__do_copy_data                                    /usr/lib/gcc/avr/5.4.0/avr5/libgcc.a(_copy_data.o)
                                                  /home/solisjose46/Desktop/SER486/github/project3/lib_projc.a(vpd.o)
                                                  /home/solisjose46/Desktop/SER486/github/project3/lib_projc.a(util.o)
                                                  /home/solisjose46/Desktop/SER486/github/project3/lib_projc.a(uartsocket.o)
                                                  /home/solisjose46/Desktop/SER486/github/project3/lib_projc.a(uart.o)
                                                  /home/solisjose46/Desktop/SER486/github/project3/lib_projc.a(rtc.o)
                                                  /home/solisjose46/Desktop/SER486/github/project3/lib_projc.a(config.o)
                                                  /home/solisjose46/Desktop/SER486/github/project3/lib_projc.a(alarm.o)
                                                  obj/Debug/tempfsm.o
                                                  obj/Debug/main.o
__heap_end                                        /usr/lib/gcc/avr/5.4.0/../../../avr/lib/avr5/crtatmega328p.o
__init                                            /usr/lib/gcc/avr/5.4.0/../../../avr/lib/avr5/crtatmega328p.o
__mulsi3                                          /usr/lib/gcc/avr/5.4.0/avr5/libgcc.a(_mulsi3.o)
                                                  /home/solisjose46/Desktop/SER486/github/project3/lib_projc.a(rtc.o)
__muluhisi3                                       /usr/lib/gcc/avr/5.4.0/avr5/libgcc.a(_muluhisi3.o)
                                                  /usr/lib/gcc/avr/5.4.0/avr5/libgcc.a(_mulsi3.o)
                                                  /home/solisjose46/Desktop/SER486/github/project3/lib_projc.a(util.o)
                                                  /home/solisjose46/Desktop/SER486/github/project3/lib_projc.a(uart.o)
                                                  /home/solisjose46/Desktop/SER486/github/project3/lib_projc.a(temp.o)
                                                  /home/solisjose46/Desktop/SER486/github/project3/lib_projc.a(rtc.o)
__negsi2                                          /usr/lib/gcc/avr/5.4.0/avr5/libgcc.a(_negsi2.o)
                                                  /usr/lib/gcc/avr/5.4.0/avr5/libgcc.a(_divmodsi4.o)
__stack                                           /usr/lib/gcc/avr/5.4.0/../../../avr/lib/avr5/crtatmega328p.o
__tablejump2__                                    /usr/lib/gcc/avr/5.4.0/avr5/libgcc.a(_tablejump2.o)
                                                  obj/Debug/tempfsm.o
__udivmodhi4                                      /usr/lib/gcc/avr/5.4.0/avr5/libgcc.a(_udivmodhi4.o)
                                                  /usr/lib/gcc/avr/5.4.0/avr5/libgcc.a(_divmodhi4.o)
                                                  /home/solisjose46/Desktop/SER486/github/project3/lib_projc.a(str.o)
                                                  /home/solisjose46/Desktop/SER486/github/project3/lib_projc.a(rtc.o)
__udivmodsi4                                      /usr/lib/gcc/avr/5.4.0/avr5/libgcc.a(_udivmodsi4.o)
                                                  /usr/lib/gcc/avr/5.4.0/avr5/libgcc.a(_divmodsi4.o)
                                                  /home/solisjose46/Desktop/SER486/github/project3/lib_projc.a(util.o)
                                                  /home/solisjose46/Desktop/SER486/github/project3/lib_projc.a(rtc.o)
__umulhisi3                                       /usr/lib/gcc/avr/5.4.0/avr5/libgcc.a(_umulhisi3.o)
                                                  /usr/lib/gcc/avr/5.4.0/avr5/libgcc.a(_muluhisi3.o)
                                                  /home/solisjose46/Desktop/SER486/github/project3/lib_projc.a(rtc.o)
__vector_1                                        /usr/lib/gcc/avr/5.4.0/../../../avr/lib/avr5/crtatmega328p.o
__vector_10                                       /usr/lib/gcc/avr/5.4.0/../../../avr/lib/avr5/crtatmega328p.o
__vector_11                                       /home/solisjose46/Desktop/SER486/github/project3/lib_projc.a(timer1.o)
                                                  /usr/lib/gcc/avr/5.4.0/../../../avr/lib/avr5/crtatmega328p.o
__vector_12                                       /usr/lib/gcc/avr/5.4.0/../../../avr/lib/avr5/crtatmega328p.o
__vector_13                                       /usr/lib/gcc/avr/5.4.0/../../../avr/lib/avr5/crtatmega328p.o
__vector_14                                       /home/solisjose46/Desktop/SER486/github/project3/lib_projc.a(delay.o)
                                                  /usr/lib/gcc/avr/5.4.0/../../../avr/lib/avr5/crtatmega328p.o
__vector_15                                       /usr/lib/gcc/avr/5.4.0/../../../avr/lib/avr5/crtatmega328p.o
__vector_16                                       /usr/lib/gcc/avr/5.4.0/../../../avr/lib/avr5/crtatmega328p.o
__vector_17                                       /usr/lib/gcc/avr/5.4.0/../../../avr/lib/avr5/crtatmega328p.o
__vector_18                                       /home/solisjose46/Desktop/SER486/github/project3/lib_projc.a(serial.o)
                                                  /usr/lib/gcc/avr/5.4.0/../../../avr/lib/avr5/crtatmega328p.o
__vector_19                                       /home/solisjose46/Desktop/SER486/github/project3/lib_projc.a(serial.o)
                                                  /usr/lib/gcc/avr/5.4.0/../../../avr/lib/avr5/crtatmega328p.o
__vector_2                                        /usr/lib/gcc/avr/5.4.0/../../../avr/lib/avr5/crtatmega328p.o
__vector_20                                       /usr/lib/gcc/avr/5.4.0/../../../avr/lib/avr5/crtatmega328p.o
__vector_21                                       /usr/lib/gcc/avr/5.4.0/../../../avr/lib/avr5/crtatmega328p.o
__vector_22                                       /home/solisjose46/Desktop/SER486/github/project3/lib_projc.a(eeprom.o)
                                                  /usr/lib/gcc/avr/5.4.0/../../../avr/lib/avr5/crtatmega328p.o
__vector_23                                       /usr/lib/gcc/avr/5.4.0/../../../avr/lib/avr5/crtatmega328p.o
__vector_24                                       /usr/lib/gcc/avr/5.4.0/../../../avr/lib/avr5/crtatmega328p.o
__vector_25                                       /usr/lib/gcc/avr/5.4.0/../../../avr/lib/avr5/crtatmega328p.o
__vector_3                                        /usr/lib/gcc/avr/5.4.0/../../../avr/lib/avr5/crtatmega328p.o
__vector_4                                        /usr/lib/gcc/avr/5.4.0/../../../avr/lib/avr5/crtatmega328p.o
__vector_5                                        /usr/lib/gcc/avr/5.4.0/../../../avr/lib/avr5/crtatmega328p.o
__vector_6                                        obj/Debug/wdt.o
                                                  /usr/lib/gcc/avr/5.4.0/../../../avr/lib/avr5/crtatmega328p.o
__vector_7                                        /usr/lib/gcc/avr/5.4.0/../../../avr/lib/avr5/crtatmega328p.o
__vector_8                                        /usr/lib/gcc/avr/5.4.0/../../../avr/lib/avr5/crtatmega328p.o
__vector_9                                        /usr/lib/gcc/avr/5.4.0/../../../avr/lib/avr5/crtatmega328p.o
__vector_default                                  /usr/lib/gcc/avr/5.4.0/../../../avr/lib/avr5/crtatmega328p.o
__vectors                                         /usr/lib/gcc/avr/5.4.0/../../../avr/lib/avr5/crtatmega328p.o
_div                                              /usr/lib/gcc/avr/5.4.0/avr5/libgcc.a(_divmodhi4.o)
_exit                                             /usr/lib/gcc/avr/5.4.0/avr5/libgcc.a(_exit.o)
alarm_init                                        /home/solisjose46/Desktop/SER486/github/project3/lib_projc.a(alarm.o)
                                                  obj/Debug/main.o
alarm_send                                        /home/solisjose46/Desktop/SER486/github/project3/lib_projc.a(alarm.o)
                                                  obj/Debug/tempfsm.o
bufidx                                            /home/solisjose46/Desktop/SER486/github/project3/lib_projc.a(eeprom.o)
config                                            /home/solisjose46/Desktop/SER486/github/project3/lib_projc.a(config.o)
                                                  obj/Debug/util.o
                                                  /home/solisjose46/Desktop/SER486/github/project3/lib_projc.a(uartsocket.o)
                                                  obj/Debug/main.o
config_init                                       /home/solisjose46/Desktop/SER486/github/project3/lib_projc.a(config.o)
                                                  obj/Debug/main.o
config_is_data_valid                              /home/solisjose46/Desktop/SER486/github/project3/lib_projc.a(config.o)
config_set_modified                               /home/solisjose46/Desktop/SER486/github/project3/lib_projc.a(config.o)
                                                  obj/Debug/util.o
config_update                                     /home/solisjose46/Desktop/SER486/github/project3/lib_projc.a(config.o)
                                                  obj/Debug/util.o
                                                  obj/Debug/main.o
config_update_noisr                               /home/solisjose46/Desktop/SER486/github/project3/lib_projc.a(config.o)
                                                  obj/Debug/wdt.o
config_write_defaults                             /home/solisjose46/Desktop/SER486/github/project3/lib_projc.a(config.o)
current_temperature                               obj/Debug/main.o
                                                  /home/solisjose46/Desktop/SER486/github/project3/lib_projc.a(uartsocket.o)
delay_get                                         /home/solisjose46/Desktop/SER486/github/project3/lib_projc.a(delay.o)
delay_init                                        /home/solisjose46/Desktop/SER486/github/project3/lib_projc.a(delay.o)
delay_isdone                                      /home/solisjose46/Desktop/SER486/github/project3/lib_projc.a(delay.o)
                                                  /home/solisjose46/Desktop/SER486/github/project3/lib_projc.a(led.o)
                                                  obj/Debug/main.o
delay_set                                         /home/solisjose46/Desktop/SER486/github/project3/lib_projc.a(delay.o)
                                                  /home/solisjose46/Desktop/SER486/github/project3/lib_projc.a(led.o)
                                                  obj/Debug/main.o
eeprom_isbusy                                     /home/solisjose46/Desktop/SER486/github/project3/lib_projc.a(eeprom.o)
                                                  /home/solisjose46/Desktop/SER486/github/project3/lib_projc.a(vpd.o)
                                                  /home/solisjose46/Desktop/SER486/github/project3/lib_projc.a(log.o)
                                                  /home/solisjose46/Desktop/SER486/github/project3/lib_projc.a(config.o)
                                                  obj/Debug/main.o
eeprom_readbuf                                    /home/solisjose46/Desktop/SER486/github/project3/lib_projc.a(eeprom.o)
                                                  /home/solisjose46/Desktop/SER486/github/project3/lib_projc.a(vpd.o)
                                                  /home/solisjose46/Desktop/SER486/github/project3/lib_projc.a(log.o)
                                                  /home/solisjose46/Desktop/SER486/github/project3/lib_projc.a(config.o)
eeprom_startwrite                                 /home/solisjose46/Desktop/SER486/github/project3/lib_projc.a(eeprom.o)
eeprom_writebuf                                   /home/solisjose46/Desktop/SER486/github/project3/lib_projc.a(eeprom.o)
                                                  /home/solisjose46/Desktop/SER486/github/project3/lib_projc.a(vpd.o)
                                                  /home/solisjose46/Desktop/SER486/github/project3/lib_projc.a(log.o)
                                                  /home/solisjose46/Desktop/SER486/github/project3/lib_projc.a(config.o)
eeprom_writebuf_noisr                             /home/solisjose46/Desktop/SER486/github/project3/lib_projc.a(eeprom.o)
                                                  /home/solisjose46/Desktop/SER486/github/project3/lib_projc.a(log.o)
                                                  /home/solisjose46/Desktop/SER486/github/project3/lib_projc.a(config.o)
exit                                              /usr/lib/gcc/avr/5.4.0/avr5/libgcc.a(_exit.o)
                                                  /usr/lib/gcc/avr/5.4.0/../../../avr/lib/avr5/crtatmega328p.o
get_month                                         /home/solisjose46/Desktop/SER486/github/project3/lib_projc.a(rtc.o)
is_leapyear                                       /home/solisjose46/Desktop/SER486/github/project3/lib_projc.a(rtc.o)
led_init                                          /home/solisjose46/Desktop/SER486/github/project3/lib_projc.a(led.o)
                                                  obj/Debug/main.o
led_is_on                                         /home/solisjose46/Desktop/SER486/github/project3/lib_projc.a(led.o)
led_off                                           /home/solisjose46/Desktop/SER486/github/project3/lib_projc.a(led.o)
led_on                                            /home/solisjose46/Desktop/SER486/github/project3/lib_projc.a(led.o)
                                                  obj/Debug/wdt.o
led_set_blink                                     /home/solisjose46/Desktop/SER486/github/project3/lib_projc.a(led.o)
                                                  obj/Debug/tempfsm.o
led_update                                        /home/solisjose46/Desktop/SER486/github/project3/lib_projc.a(led.o)
                                                  obj/Debug/main.o
log_add_record                                    /home/solisjose46/Desktop/SER486/github/project3/lib_projc.a(log.o)
                                                  obj/Debug/wdt.o
                                                  obj/Debug/tempfsm.o
                                                  obj/Debug/main.o
log_clear                                         /home/solisjose46/Desktop/SER486/github/project3/lib_projc.a(log.o)
                                                  /home/solisjose46/Desktop/SER486/github/project3/lib_projc.a(uartsocket.o)
log_get_num_entries                               /home/solisjose46/Desktop/SER486/github/project3/lib_projc.a(log.o)
                                                  /home/solisjose46/Desktop/SER486/github/project3/lib_projc.a(uartsocket.o)
log_get_record                                    /home/solisjose46/Desktop/SER486/github/project3/lib_projc.a(log.o)
                                                  /home/solisjose46/Desktop/SER486/github/project3/lib_projc.a(uartsocket.o)
log_init                                          /home/solisjose46/Desktop/SER486/github/project3/lib_projc.a(log.o)
                                                  obj/Debug/main.o
log_is_data_valid                                 /home/solisjose46/Desktop/SER486/github/project3/lib_projc.a(log.o)
log_update                                        /home/solisjose46/Desktop/SER486/github/project3/lib_projc.a(log.o)
                                                  obj/Debug/main.o
log_update_noisr                                  /home/solisjose46/Desktop/SER486/github/project3/lib_projc.a(log.o)
                                                  obj/Debug/wdt.o
main                                              obj/Debug/main.o
                                                  /usr/lib/gcc/avr/5.4.0/../../../avr/lib/avr5/crtatmega328p.o
mem_cmp                                           /home/solisjose46/Desktop/SER486/github/project3/lib_projc.a(str.o)
mem_cpy                                           /home/solisjose46/Desktop/SER486/github/project3/lib_projc.a(str.o)
mem_set                                           /home/solisjose46/Desktop/SER486/github/project3/lib_projc.a(str.o)
millis                                            /home/solisjose46/Desktop/SER486/github/project3/lib_projc.a(delay.o)
parse_and_send_response                           /home/solisjose46/Desktop/SER486/github/project3/lib_projc.a(uartsocket.o)
                                                  obj/Debug/main.o
random                                            /home/solisjose46/Desktop/SER486/github/project3/lib_projc.a(util.o)
random_seed                                       /home/solisjose46/Desktop/SER486/github/project3/lib_projc.a(util.o)
rtc_base                                          /home/solisjose46/Desktop/SER486/github/project3/lib_projc.a(rtc.o)
rtc_get_date                                      /home/solisjose46/Desktop/SER486/github/project3/lib_projc.a(rtc.o)
                                                  /home/solisjose46/Desktop/SER486/github/project3/lib_projc.a(log.o)
rtc_get_date_string                               /home/solisjose46/Desktop/SER486/github/project3/lib_projc.a(rtc.o)
rtc_init                                          /home/solisjose46/Desktop/SER486/github/project3/lib_projc.a(rtc.o)
                                                  obj/Debug/main.o
rtc_num2datestr                                   /home/solisjose46/Desktop/SER486/github/project3/lib_projc.a(rtc.o)
                                                  /home/solisjose46/Desktop/SER486/github/project3/lib_projc.a(uartsocket.o)
rtc_set_by_datestr                                /home/solisjose46/Desktop/SER486/github/project3/lib_projc.a(rtc.o)
rtc_set_date                                      /home/solisjose46/Desktop/SER486/github/project3/lib_projc.a(rtc.o)
rxbuf                                             /home/solisjose46/Desktop/SER486/github/project3/lib_projc.a(serial.o)
rxhead                                            /home/solisjose46/Desktop/SER486/github/project3/lib_projc.a(serial.o)
rxtail                                            /home/solisjose46/Desktop/SER486/github/project3/lib_projc.a(serial.o)
serial_init                                       /home/solisjose46/Desktop/SER486/github/project3/lib_projc.a(serial.o)
                                                  /home/solisjose46/Desktop/SER486/github/project3/lib_projc.a(uart.o)
serial_is_packet_ready                            /home/solisjose46/Desktop/SER486/github/project3/lib_projc.a(serial.o)
                                                  /home/solisjose46/Desktop/SER486/github/project3/lib_projc.a(uartsocket.o)
                                                  /home/solisjose46/Desktop/SER486/github/project3/lib_projc.a(uart.o)
serial_isconnected                                /home/solisjose46/Desktop/SER486/github/project3/lib_projc.a(serial.o)
                                                  /home/solisjose46/Desktop/SER486/github/project3/lib_projc.a(uartsocket.o)
                                                  /home/solisjose46/Desktop/SER486/github/project3/lib_projc.a(uart.o)
serial_popchar                                    /home/solisjose46/Desktop/SER486/github/project3/lib_projc.a(serial.o)
                                                  /home/solisjose46/Desktop/SER486/github/project3/lib_projc.a(uartsocket.o)
                                                  /home/solisjose46/Desktop/SER486/github/project3/lib_projc.a(uart.o)
serial_rxchars                                    /home/solisjose46/Desktop/SER486/github/project3/lib_projc.a(serial.o)
                                                  /home/solisjose46/Desktop/SER486/github/project3/lib_projc.a(uartsocket.o)
                                                  /home/solisjose46/Desktop/SER486/github/project3/lib_projc.a(uart.o)
serial_writechar                                  /home/solisjose46/Desktop/SER486/github/project3/lib_projc.a(serial.o)
                                                  /home/solisjose46/Desktop/SER486/github/project3/lib_projc.a(uart.o)
serial_writestr                                   /home/solisjose46/Desktop/SER486/github/project3/lib_projc.a(serial.o)
serial_writestr_P                                 /home/solisjose46/Desktop/SER486/github/project3/lib_projc.a(serial.o)
siminfo_cpufrequency                              /home/solisjose46/Desktop/SER486/github/project3/lib_projc.a(uart.o)
siminfo_device                                    /home/solisjose46/Desktop/SER486/github/project3/lib_projc.a(uart.o)
siminfo_serial_in                                 /home/solisjose46/Desktop/SER486/github/project3/lib_projc.a(uart.o)
siminfo_serial_out                                /home/solisjose46/Desktop/SER486/github/project3/lib_projc.a(uart.o)
str_cmp                                           /home/solisjose46/Desktop/SER486/github/project3/lib_projc.a(util.o)
                                                  /home/solisjose46/Desktop/SER486/github/project3/lib_projc.a(uartsocket.o)
str_cpy                                           /home/solisjose46/Desktop/SER486/github/project3/lib_projc.a(str.o)
                                                  /home/solisjose46/Desktop/SER486/github/project3/lib_projc.a(rtc.o)
str_len                                           /home/solisjose46/Desktop/SER486/github/project3/lib_projc.a(str.o)
str_writeudec16                                   /home/solisjose46/Desktop/SER486/github/project3/lib_projc.a(str.o)
                                                  /home/solisjose46/Desktop/SER486/github/project3/lib_projc.a(rtc.o)
strtoi                                            /home/solisjose46/Desktop/SER486/github/project3/lib_projc.a(util.o)
temp_get                                          /home/solisjose46/Desktop/SER486/github/project3/lib_projc.a(temp.o)
                                                  obj/Debug/main.o
temp_init                                         /home/solisjose46/Desktop/SER486/github/project3/lib_projc.a(temp.o)
                                                  obj/Debug/main.o
temp_is_data_ready                                /home/solisjose46/Desktop/SER486/github/project3/lib_projc.a(temp.o)
temp_start                                        /home/solisjose46/Desktop/SER486/github/project3/lib_projc.a(temp.o)
                                                  obj/Debug/main.o
tempfsm_init                                      obj/Debug/tempfsm.o
                                                  obj/Debug/main.o
tempfsm_reset                                     obj/Debug/tempfsm.o
tempfsm_update                                    obj/Debug/tempfsm.o
                                                  obj/Debug/main.o
timer1_clear                                      /home/solisjose46/Desktop/SER486/github/project3/lib_projc.a(timer1.o)
                                                  /home/solisjose46/Desktop/SER486/github/project3/lib_projc.a(rtc.o)
timer1_get                                        /home/solisjose46/Desktop/SER486/github/project3/lib_projc.a(timer1.o)
                                                  /home/solisjose46/Desktop/SER486/github/project3/lib_projc.a(rtc.o)
timer1_init                                       /home/solisjose46/Desktop/SER486/github/project3/lib_projc.a(timer1.o)
                                                  /home/solisjose46/Desktop/SER486/github/project3/lib_projc.a(rtc.o)
txbuf                                             /home/solisjose46/Desktop/SER486/github/project3/lib_projc.a(serial.o)
txhead                                            /home/solisjose46/Desktop/SER486/github/project3/lib_projc.a(serial.o)
txtail                                            /home/solisjose46/Desktop/SER486/github/project3/lib_projc.a(serial.o)
uart_init                                         /home/solisjose46/Desktop/SER486/github/project3/lib_projc.a(uart.o)
                                                  obj/Debug/main.o
uart_is_connected                                 /home/solisjose46/Desktop/SER486/github/project3/lib_projc.a(uart.o)
uart_is_packet_available                          /home/solisjose46/Desktop/SER486/github/project3/lib_projc.a(uart.o)
uart_readpacket                                   /home/solisjose46/Desktop/SER486/github/project3/lib_projc.a(uart.o)
uart_writechar                                    /home/solisjose46/Desktop/SER486/github/project3/lib_projc.a(uart.o)
                                                  /home/solisjose46/Desktop/SER486/github/project3/lib_projc.a(uartsocket.o)
uart_writedec32                                   /home/solisjose46/Desktop/SER486/github/project3/lib_projc.a(uart.o)
                                                  /home/solisjose46/Desktop/SER486/github/project3/lib_projc.a(uartsocket.o)
                                                  /home/solisjose46/Desktop/SER486/github/project3/lib_projc.a(alarm.o)
uart_writehex16                                   /home/solisjose46/Desktop/SER486/github/project3/lib_projc.a(uart.o)
                                                  /home/solisjose46/Desktop/SER486/github/project3/lib_projc.a(uartsocket.o)
uart_writehex8                                    /home/solisjose46/Desktop/SER486/github/project3/lib_projc.a(uart.o)
                                                  /home/solisjose46/Desktop/SER486/github/project3/lib_projc.a(uartsocket.o)
uart_writeip                                      /home/solisjose46/Desktop/SER486/github/project3/lib_projc.a(uart.o)
uart_writestr                                     /home/solisjose46/Desktop/SER486/github/project3/lib_projc.a(uart.o)
                                                  /home/solisjose46/Desktop/SER486/github/project3/lib_projc.a(uartsocket.o)
                                                  /home/solisjose46/Desktop/SER486/github/project3/lib_projc.a(alarm.o)
                                                  obj/Debug/main.o
uartsocket_is_connected                           /home/solisjose46/Desktop/SER486/github/project3/lib_projc.a(uartsocket.o)
                                                  obj/Debug/main.o
uartsocket_is_packet_available                    /home/solisjose46/Desktop/SER486/github/project3/lib_projc.a(uartsocket.o)
                                                  obj/Debug/main.o
uartsocket_readpacket                             /home/solisjose46/Desktop/SER486/github/project3/lib_projc.a(uartsocket.o)
uartsocket_writechar                              /home/solisjose46/Desktop/SER486/github/project3/lib_projc.a(uartsocket.o)
uartsocket_writedec32                             /home/solisjose46/Desktop/SER486/github/project3/lib_projc.a(uartsocket.o)
uartsocket_writehex16                             /home/solisjose46/Desktop/SER486/github/project3/lib_projc.a(uartsocket.o)
uartsocket_writehex8                              /home/solisjose46/Desktop/SER486/github/project3/lib_projc.a(uartsocket.o)
uartsocket_writestr                               /home/solisjose46/Desktop/SER486/github/project3/lib_projc.a(uartsocket.o)
                                                  obj/Debug/main.o
update_checksum                                   /home/solisjose46/Desktop/SER486/github/project3/lib_projc.a(util.o)
                                                  /home/solisjose46/Desktop/SER486/github/project3/lib_projc.a(vpd.o)
                                                  /home/solisjose46/Desktop/SER486/github/project3/lib_projc.a(log.o)
                                                  /home/solisjose46/Desktop/SER486/github/project3/lib_projc.a(config.o)
update_tcrit_hi                                   obj/Debug/util.o
                                                  /home/solisjose46/Desktop/SER486/github/project3/lib_projc.a(uartsocket.o)
update_tcrit_lo                                   obj/Debug/util.o
                                                  /home/solisjose46/Desktop/SER486/github/project3/lib_projc.a(uartsocket.o)
update_twarn_hi                                   obj/Debug/util.o
                                                  /home/solisjose46/Desktop/SER486/github/project3/lib_projc.a(uartsocket.o)
update_twarn_lo                                   obj/Debug/util.o
                                                  /home/solisjose46/Desktop/SER486/github/project3/lib_projc.a(uartsocket.o)
vpd                                               /home/solisjose46/Desktop/SER486/github/project3/lib_projc.a(vpd.o)
                                                  /home/solisjose46/Desktop/SER486/github/project3/lib_projc.a(uartsocket.o)
vpd_init                                          /home/solisjose46/Desktop/SER486/github/project3/lib_projc.a(vpd.o)
                                                  obj/Debug/main.o
vpd_is_data_valid                                 /home/solisjose46/Desktop/SER486/github/project3/lib_projc.a(vpd.o)
vpd_write_defaults                                /home/solisjose46/Desktop/SER486/github/project3/lib_projc.a(vpd.o)
wdt_force_restart                                 obj/Debug/wdt.o
                                                  /home/solisjose46/Desktop/SER486/github/project3/lib_projc.a(uartsocket.o)
wdt_init                                          obj/Debug/wdt.o
                                                  obj/Debug/main.o
wdt_reset                                         obj/Debug/wdt.o
                                                  obj/Debug/main.o
write_busy                                        /home/solisjose46/Desktop/SER486/github/project3/lib_projc.a(eeprom.o)
writeaddr                                         /home/solisjose46/Desktop/SER486/github/project3/lib_projc.a(eeprom.o)
writebuf                                          /home/solisjose46/Desktop/SER486/github/project3/lib_projc.a(eeprom.o)
writesize                                         /home/solisjose46/Desktop/SER486/github/project3/lib_projc.a(eeprom.o)
